
Obj/output.elf:     file format elf32-littlearm


Disassembly of section .text:

00008000 <_start>:
    8000:	e3a00000 	mov	r0, #0
    8004:	e59f10a4 	ldr	r1, [pc, #164]	; 80b0 <errordump+0x4>
    8008:	e59f30a4 	ldr	r3, [pc, #164]	; 80b4 <errordump+0x8>

0000800c <copy_intrerrupt_vectors>:
    800c:	e5912000 	ldr	r2, [r1]
    8010:	e5802000 	str	r2, [r0]
    8014:	e2800004 	add	r0, r0, #4
    8018:	e2811004 	add	r1, r1, #4
    801c:	e1510003 	cmp	r1, r3
    8020:	1afffff9 	bne	800c <copy_intrerrupt_vectors>
    8024:	e3a0d201 	mov	sp, #268435456	; 0x10000000
    8028:	eb00006a 	bl	81d8 <kmain>

0000802c <interrupt_vectors>:
    802c:	e59ff018 	ldr	pc, [pc, #24]	; 804c <reset_handler>
    8030:	e59ff018 	ldr	pc, [pc, #24]	; 8050 <undefined_handler>
    8034:	e59ff018 	ldr	pc, [pc, #24]	; 8054 <swi_handler>
    8038:	e59ff018 	ldr	pc, [pc, #24]	; 8058 <prefetch_handler>
    803c:	e59ff018 	ldr	pc, [pc, #24]	; 805c <data_handler>
    8040:	e59ff018 	ldr	pc, [pc, #24]	; 8060 <unused_handler>
    8044:	e59ff018 	ldr	pc, [pc, #24]	; 8064 <irq_handler>
    8048:	e59ff018 	ldr	pc, [pc, #24]	; 8068 <fiq_handler>

0000804c <reset_handler>:
    804c:	000080ac 	andeq	r8, r0, ip, lsr #1

00008050 <undefined_handler>:
    8050:	000080ac 	andeq	r8, r0, ip, lsr #1

00008054 <swi_handler>:
    8054:	00008180 	andeq	r8, r0, r0, lsl #3

00008058 <prefetch_handler>:
    8058:	0000806c 	andeq	r8, r0, ip, rrx

0000805c <data_handler>:
    805c:	0000806c 	andeq	r8, r0, ip, rrx

00008060 <unused_handler>:
    8060:	000080ac 	andeq	r8, r0, ip, lsr #1

00008064 <irq_handler>:
    8064:	000081a4 	andeq	r8, r0, r4, lsr #3

00008068 <fiq_handler>:
    8068:	0000806c 	andeq	r8, r0, ip, rrx

0000806c <hang>:
    806c:	eafffffe 	b	806c <hang>

00008070 <mmio_write>:
    8070:	e5801000 	str	r1, [r0]
    8074:	e12fff1e 	bx	lr

00008078 <mmio_read>:
    8078:	e5900000 	ldr	r0, [r0]
    807c:	e12fff1e 	bx	lr

00008080 <dummy>:
    8080:	e12fff1e 	bx	lr

00008084 <NOP>:
    8084:	e1a00000 	nop			; (mov r0, r0)

00008088 <__irq_global_enable>:
    8088:	e10f0000 	mrs	r0, CPSR
    808c:	e3c00080 	bic	r0, r0, #128	; 0x80
    8090:	e121f000 	msr	CPSR_c, r0
    8094:	e12fff1e 	bx	lr

00008098 <__irq_global_disable>:
    8098:	e10f0000 	mrs	r0, CPSR
    809c:	e3e02080 	mvn	r2, #128	; 0x80
    80a0:	e1822000 	orr	r2, r2, r0
    80a4:	e121f000 	msr	CPSR_c, r0
    80a8:	e12fff1e 	bx	lr

000080ac <errordump>:
    80ac:	eb00017f 	bl	86b0 <crashdump>
    80b0:	0000802c 	andeq	r8, r0, ip, lsr #32
    80b4:	0000806c 	andeq	r8, r0, ip, rrx

000080b8 <yield>:
    80b8:	e52d7004 	push	{r7}		; (str r7, [sp, #-4]!)
    80bc:	e3a07000 	mov	r7, #0
    80c0:	ef000000 	svc	0x00000000
    80c4:	e12fff1e 	bx	lr

000080c8 <fork>:
    80c8:	e52d7004 	push	{r7}		; (str r7, [sp, #-4]!)
    80cc:	e3a07001 	mov	r7, #1
    80d0:	ef000000 	svc	0x00000000
    80d4:	e12fff1e 	bx	lr

000080d8 <exit>:
    80d8:	e52d7004 	push	{r7}		; (str r7, [sp, #-4]!)
    80dc:	e3a07002 	mov	r7, #2
    80e0:	ef000000 	svc	0x00000000
    80e4:	e12fff1e 	bx	lr

000080e8 <getpid>:
    80e8:	e52d7004 	push	{r7}		; (str r7, [sp, #-4]!)
    80ec:	e3a07003 	mov	r7, #3
    80f0:	ef000000 	svc	0x00000000
    80f4:	e12fff1e 	bx	lr

000080f8 <write>:
    80f8:	e52d7004 	push	{r7}		; (str r7, [sp, #-4]!)
    80fc:	e3a07004 	mov	r7, #4
    8100:	ef000000 	svc	0x00000000
    8104:	e12fff1e 	bx	lr

00008108 <read>:
    8108:	e52d7004 	push	{r7}		; (str r7, [sp, #-4]!)
    810c:	e3a07005 	mov	r7, #5
    8110:	ef000000 	svc	0x00000000
    8114:	e12fff1e 	bx	lr

00008118 <open>:
    8118:	e52d7004 	push	{r7}		; (str r7, [sp, #-4]!)
    811c:	e3a07006 	mov	r7, #6
    8120:	ef000000 	svc	0x00000000
    8124:	e12fff1e 	bx	lr

00008128 <close>:
    8128:	e52d7004 	push	{r7}		; (str r7, [sp, #-4]!)
    812c:	e3a07007 	mov	r7, #7
    8130:	ef000000 	svc	0x00000000
    8134:	e12fff1e 	bx	lr

00008138 <peek>:
    8138:	e52d7004 	push	{r7}		; (str r7, [sp, #-4]!)
    813c:	e3a07008 	mov	r7, #8
    8140:	ef000000 	svc	0x00000000
    8144:	e12fff1e 	bx	lr

00008148 <sleep>:
    8148:	e52d7004 	push	{r7}		; (str r7, [sp, #-4]!)
    814c:	e3a07009 	mov	r7, #9
    8150:	ef000000 	svc	0x00000000
    8154:	e12fff1e 	bx	lr

00008158 <activate>:
    8158:	e1a0c00d 	mov	ip, sp
    815c:	e92d5ff0 	push	{r4, r5, r6, r7, r8, r9, sl, fp, ip, lr}
    8160:	e8b05000 	ldm	r0!, {ip, lr}
    8164:	e169f00c 	msr	SPSR_fc, ip
    8168:	e321f0df 	msr	CPSR_c, #223	; 0xdf
    816c:	e1a0d000 	mov	sp, r0
    8170:	e8bd5fff 	pop	{r0, r1, r2, r3, r4, r5, r6, r7, r8, r9, sl, fp, ip, lr}
    8174:	e49d7004 	pop	{r7}		; (ldr r7, [sp], #4)
    8178:	e321f0d3 	msr	CPSR_c, #211	; 0xd3
    817c:	e1b0f00e 	movs	pc, lr

00008180 <software_interrupt>:
    8180:	e321f0df 	msr	CPSR_c, #223	; 0xdf
    8184:	e92d5fff 	push	{r0, r1, r2, r3, r4, r5, r6, r7, r8, r9, sl, fp, ip, lr}
    8188:	e1a0000d 	mov	r0, sp
    818c:	e321f0d3 	msr	CPSR_c, #211	; 0xd3
    8190:	e14fc000 	mrs	ip, SPSR
    8194:	e9205000 	stmdb	r0!, {ip, lr}
    8198:	e8bd5ff0 	pop	{r4, r5, r6, r7, r8, r9, sl, fp, ip, lr}
    819c:	e1a0d00c 	mov	sp, ip
    81a0:	e12fff1e 	bx	lr

000081a4 <hardware_interrupt>:
    81a4:	e321f0df 	msr	CPSR_c, #223	; 0xdf
    81a8:	e52d7004 	push	{r7}		; (str r7, [sp, #-4]!)
    81ac:	e3a07c01 	mov	r7, #256	; 0x100
    81b0:	e92d5fff 	push	{r0, r1, r2, r3, r4, r5, r6, r7, r8, r9, sl, fp, ip, lr}
    81b4:	e1a0000d 	mov	r0, sp
    81b8:	e321f0d2 	msr	CPSR_c, #210	; 0xd2
    81bc:	e14fc000 	mrs	ip, SPSR
    81c0:	e24ee004 	sub	lr, lr, #4
    81c4:	e9205000 	stmdb	r0!, {ip, lr}
    81c8:	e321f0d3 	msr	CPSR_c, #211	; 0xd3
    81cc:	e8bd5ff0 	pop	{r4, r5, r6, r7, r8, r9, sl, fp, ip, lr}
    81d0:	e1a0d00c 	mov	sp, ip
    81d4:	e12fff1e 	bx	lr

000081d8 <kmain>:
    81d8:	e92d4ff0 	push	{r4, r5, r6, r7, r8, r9, sl, fp, lr}
    81dc:	e24ddbc9 	sub	sp, sp, #205824	; 0x32400
    81e0:	e24ddf65 	sub	sp, sp, #404	; 0x194
    81e4:	eb0002ca 	bl	8d14 <init_device_driver_struct>
    81e8:	eb000329 	bl	8e94 <irq_init_data>
    81ec:	eb0005a6 	bl	988c <uart_init_driver>
    81f0:	eb000136 	bl	86d0 <_init_printk>
    81f4:	eb000479 	bl	93e0 <timer_init>
    81f8:	e3a00001 	mov	r0, #1
    81fc:	eb000341 	bl	8f08 <irq_enable>
    8200:	e59f0480 	ldr	r0, [pc, #1152]	; 8688 <kmain+0x4b0>
    8204:	eb000136 	bl	86e4 <printk>
    8208:	eb000331 	bl	8ed4 <irq_global_enable>
    820c:	e59f0478 	ldr	r0, [pc, #1144]	; 868c <kmain+0x4b4>
    8210:	eb000133 	bl	86e4 <printk>
    8214:	e3a01001 	mov	r1, #1
    8218:	e3a0002f 	mov	r0, #47	; 0x2f
    821c:	eb000292 	bl	8c6c <gpio_enable_pin>
    8220:	e3a0002f 	mov	r0, #47	; 0x2f
    8224:	eb0002b3 	bl	8cf8 <gpio_clear_pin>
    8228:	e3e00000 	mvn	r0, #0
    822c:	e3a01002 	mov	r1, #2
    8230:	e28d3018 	add	r3, sp, #24
    8234:	e58d3000 	str	r3, [sp]
    8238:	e28d2e59 	add	r2, sp, #1424	; 0x590
    823c:	e5830000 	str	r0, [r3]
    8240:	e583100c 	str	r1, [r3, #12]
    8244:	e283301c 	add	r3, r3, #28
    8248:	e1530002 	cmp	r3, r2
    824c:	1afffffa 	bne	823c <kmain+0x64>
    8250:	e3a01032 	mov	r1, #50	; 0x32
    8254:	e59d0000 	ldr	r0, [sp]
    8258:	eb000451 	bl	93a4 <task_nextfree>
    825c:	e3a06000 	mov	r6, #0
    8260:	e1a03000 	mov	r3, r0
    8264:	e0604180 	rsb	r4, r0, r0, lsl #3
    8268:	e28d2e59 	add	r2, sp, #1424	; 0x590
    826c:	e1a04104 	lsl	r4, r4, #2
    8270:	e0828004 	add	r8, r2, r4
    8274:	e5083570 	str	r3, [r8, #-1392]	; 0x570
    8278:	e0820600 	add	r0, r2, r0, lsl #12
    827c:	e59f140c 	ldr	r1, [pc, #1036]	; 8690 <kmain+0x4b8>
    8280:	e5086578 	str	r6, [r8, #-1400]	; 0x578
    8284:	e508656c 	str	r6, [r8, #-1388]	; 0x56c
    8288:	eb00042e 	bl	9348 <task_stack_init>
    828c:	e1a05006 	mov	r5, r6
    8290:	e3a07001 	mov	r7, #1
    8294:	e59d3000 	ldr	r3, [sp]
    8298:	e0834004 	add	r4, r3, r4
    829c:	e5080574 	str	r0, [r8, #-1396]	; 0x574
    82a0:	e5084568 	str	r4, [r8, #-1384]	; 0x568
    82a4:	e5084564 	str	r4, [r8, #-1380]	; 0x564
    82a8:	e10f8000 	mrs	r8, CPSR
    82ac:	e59f03e0 	ldr	r0, [pc, #992]	; 8694 <kmain+0x4bc>
    82b0:	eb00010b 	bl	86e4 <printk>
    82b4:	e208300f 	and	r3, r8, #15
    82b8:	e58d3004 	str	r3, [sp, #4]
    82bc:	e5940004 	ldr	r0, [r4, #4]
    82c0:	ebffffa4 	bl	8158 <activate>
    82c4:	e5908024 	ldr	r8, [r0, #36]	; 0x24
    82c8:	e3580004 	cmp	r8, #4
    82cc:	e1a03000 	mov	r3, r0
    82d0:	e5840004 	str	r0, [r4, #4]
    82d4:	0a0000b4 	beq	85ac <kmain+0x3d4>
    82d8:	9a000027 	bls	837c <kmain+0x1a4>
    82dc:	e3580007 	cmp	r8, #7
    82e0:	0a0000c6 	beq	8600 <kmain+0x428>
    82e4:	8a000032 	bhi	83b4 <kmain+0x1dc>
    82e8:	e3580005 	cmp	r8, #5
    82ec:	0a000063 	beq	8480 <kmain+0x2a8>
    82f0:	e3580006 	cmp	r8, #6
    82f4:	1a000017 	bne	8358 <kmain+0x180>
    82f8:	e3e02000 	mvn	r2, #0
    82fc:	e5900008 	ldr	r0, [r0, #8]
    8300:	e5832008 	str	r2, [r3, #8]
    8304:	eb0002be 	bl	8e04 <drivers_find_device>
    8308:	e2509000 	subs	r9, r0, #0
    830c:	0a000018 	beq	8374 <kmain+0x19c>
    8310:	e599306c 	ldr	r3, [r9, #108]	; 0x6c
    8314:	e3530000 	cmp	r3, #0
    8318:	0a000015 	beq	8374 <kmain+0x19c>
    831c:	e593c010 	ldr	ip, [r3, #16]
    8320:	e1a0e00f 	mov	lr, pc
    8324:	e12fff1c 	bx	ip
    8328:	e3500000 	cmp	r0, #0
    832c:	0a000010 	beq	8374 <kmain+0x19c>
    8330:	e5991064 	ldr	r1, [r9, #100]	; 0x64
    8334:	e5942004 	ldr	r2, [r4, #4]
    8338:	e5943010 	ldr	r3, [r4, #16]
    833c:	e5821008 	str	r1, [r2, #8]
    8340:	e1a04003 	mov	r4, r3
    8344:	e594300c 	ldr	r3, [r4, #12]
    8348:	e3530000 	cmp	r3, #0
    834c:	0affffda 	beq	82bc <kmain+0xe4>
    8350:	e5944010 	ldr	r4, [r4, #16]
    8354:	eafffffa 	b	8344 <kmain+0x16c>
    8358:	e59f0338 	ldr	r0, [pc, #824]	; 8698 <kmain+0x4c0>
    835c:	eb0000e0 	bl	86e4 <printk>
    8360:	e5943004 	ldr	r3, [r4, #4]
    8364:	e5931024 	ldr	r1, [r3, #36]	; 0x24
    8368:	e59f032c 	ldr	r0, [pc, #812]	; 869c <kmain+0x4c4>
    836c:	e1a02001 	mov	r2, r1
    8370:	eb0000db 	bl	86e4 <printk>
    8374:	e5943010 	ldr	r3, [r4, #16]
    8378:	eafffff0 	b	8340 <kmain+0x168>
    837c:	e3580001 	cmp	r8, #1
    8380:	0a000064 	beq	8518 <kmain+0x340>
    8384:	3afffffa 	bcc	8374 <kmain+0x19c>
    8388:	e3580002 	cmp	r8, #2
    838c:	0a000051 	beq	84d8 <kmain+0x300>
    8390:	e3580003 	cmp	r8, #3
    8394:	1affffef 	bne	8358 <kmain+0x180>
    8398:	e59d1004 	ldr	r1, [sp, #4]
    839c:	e59f02fc 	ldr	r0, [pc, #764]	; 86a0 <kmain+0x4c8>
    83a0:	eb0000cf 	bl	86e4 <printk>
    83a4:	e8940006 	ldm	r4, {r1, r2}
    83a8:	e5943010 	ldr	r3, [r4, #16]
    83ac:	e5821008 	str	r1, [r2, #8]
    83b0:	eaffffe2 	b	8340 <kmain+0x168>
    83b4:	e3580008 	cmp	r8, #8
    83b8:	0a000020 	beq	8440 <kmain+0x268>
    83bc:	e3580c01 	cmp	r8, #256	; 0x100
    83c0:	1affffe4 	bne	8358 <kmain+0x180>
    83c4:	e28d000c 	add	r0, sp, #12
    83c8:	eb00035f 	bl	914c <irq_waiting>
    83cc:	e3500000 	cmp	r0, #0
    83d0:	0a0000a1 	beq	865c <kmain+0x484>
    83d4:	e28d900c 	add	r9, sp, #12
    83d8:	e089a000 	add	sl, r9, r0
    83dc:	ea00000b 	b	8410 <kmain+0x238>
    83e0:	e3550005 	cmp	r5, #5
    83e4:	92855001 	addls	r5, r5, #1
    83e8:	9a000005 	bls	8404 <kmain+0x22c>
    83ec:	e3160001 	tst	r6, #1
    83f0:	0a000092 	beq	8640 <kmain+0x468>
    83f4:	e3a0002f 	mov	r0, #47	; 0x2f
    83f8:	e1a05003 	mov	r5, r3
    83fc:	e3a06000 	mov	r6, #0
    8400:	eb00023c 	bl	8cf8 <gpio_clear_pin>
    8404:	eb000400 	bl	940c <timer_irq_ack>
    8408:	e159000a 	cmp	r9, sl
    840c:	0affffd8 	beq	8374 <kmain+0x19c>
    8410:	e4d93001 	ldrb	r3, [r9], #1
    8414:	e3530001 	cmp	r3, #1
    8418:	0afffff0 	beq	83e0 <kmain+0x208>
    841c:	e1a00003 	mov	r0, r3
    8420:	eb00031a 	bl	9090 <irq_find_handler>
    8424:	e2503000 	subs	r3, r0, #0
    8428:	e5590001 	ldrb	r0, [r9, #-1]
    842c:	0a000088 	beq	8654 <kmain+0x47c>
    8430:	e593c004 	ldr	ip, [r3, #4]
    8434:	e1a0e00f 	mov	lr, pc
    8438:	e12fff1c 	bx	ip
    843c:	eafffff1 	b	8408 <kmain+0x230>
    8440:	e3e02000 	mvn	r2, #0
    8444:	e5900008 	ldr	r0, [r0, #8]
    8448:	e5832008 	str	r2, [r3, #8]
    844c:	eb00027e 	bl	8e4c <drivers_find_device_id>
    8450:	e3500000 	cmp	r0, #0
    8454:	0affffc6 	beq	8374 <kmain+0x19c>
    8458:	e590306c 	ldr	r3, [r0, #108]	; 0x6c
    845c:	e3530000 	cmp	r3, #0
    8460:	0affffc3 	beq	8374 <kmain+0x19c>
    8464:	e5949004 	ldr	r9, [r4, #4]
    8468:	e593c00c 	ldr	ip, [r3, #12]
    846c:	e1a0e00f 	mov	lr, pc
    8470:	e12fff1c 	bx	ip
    8474:	e5943010 	ldr	r3, [r4, #16]
    8478:	e5890008 	str	r0, [r9, #8]
    847c:	eaffffaf 	b	8340 <kmain+0x168>
    8480:	e283a00c 	add	sl, r3, #12
    8484:	e5900008 	ldr	r0, [r0, #8]
    8488:	e594900c 	ldr	r9, [r4, #12]
    848c:	e89a0c00 	ldm	sl, {sl, fp}
    8490:	eb00026d 	bl	8e4c <drivers_find_device_id>
    8494:	e3500000 	cmp	r0, #0
    8498:	0affffb5 	beq	8374 <kmain+0x19c>
    849c:	e590306c 	ldr	r3, [r0, #108]	; 0x6c
    84a0:	e3530000 	cmp	r3, #0
    84a4:	0affffb2 	beq	8374 <kmain+0x19c>
    84a8:	e3a02003 	mov	r2, #3
    84ac:	e1a0000a 	mov	r0, sl
    84b0:	e1a0100b 	mov	r1, fp
    84b4:	e584200c 	str	r2, [r4, #12]
    84b8:	e594a004 	ldr	sl, [r4, #4]
    84bc:	e593c000 	ldr	ip, [r3]
    84c0:	e1a0e00f 	mov	lr, pc
    84c4:	e12fff1c 	bx	ip
    84c8:	e5943010 	ldr	r3, [r4, #16]
    84cc:	e58a0008 	str	r0, [sl, #8]
    84d0:	e584900c 	str	r9, [r4, #12]
    84d4:	eaffff99 	b	8340 <kmain+0x168>
    84d8:	e5902008 	ldr	r2, [r0, #8]
    84dc:	e5941000 	ldr	r1, [r4]
    84e0:	e59f01bc 	ldr	r0, [pc, #444]	; 86a4 <kmain+0x4cc>
    84e4:	eb00007e 	bl	86e4 <printk>
    84e8:	e3e00000 	mvn	r0, #0
    84ec:	e3a01000 	mov	r1, #0
    84f0:	e2842010 	add	r2, r4, #16
    84f4:	e892000c 	ldm	r2, {r2, r3}
    84f8:	e584800c 	str	r8, [r4, #12]
    84fc:	e8840003 	stm	r4, {r0, r1}
    8500:	e5832010 	str	r2, [r3, #16]
    8504:	e5942010 	ldr	r2, [r4, #16]
    8508:	e5823014 	str	r3, [r2, #20]
    850c:	e5943014 	ldr	r3, [r4, #20]
    8510:	e5933010 	ldr	r3, [r3, #16]
    8514:	eaffff89 	b	8340 <kmain+0x168>
    8518:	e59d0000 	ldr	r0, [sp]
    851c:	e3a01032 	mov	r1, #50	; 0x32
    8520:	eb00039f 	bl	93a4 <task_nextfree>
    8524:	e250c000 	subs	ip, r0, #0
    8528:	ba000050 	blt	8670 <kmain+0x498>
    852c:	e3a0b000 	mov	fp, #0
    8530:	e9940005 	ldmib	r4, {r0, r2}
    8534:	e06c318c 	rsb	r3, ip, ip, lsl #3
    8538:	e28d1e59 	add	r1, sp, #1424	; 0x590
    853c:	e2822001 	add	r2, r2, #1
    8540:	e1a09103 	lsl	r9, r3, #2
    8544:	e0812602 	add	r2, r1, r2, lsl #12
    8548:	e081a009 	add	sl, r1, r9
    854c:	e0602002 	rsb	r2, r0, r2
    8550:	e24a3e57 	sub	r3, sl, #1392	; 0x570
    8554:	e081160c 	add	r1, r1, ip, lsl #12
    8558:	e1a02142 	asr	r2, r2, #2
    855c:	e50a7578 	str	r7, [sl, #-1400]	; 0x578
    8560:	e50ac570 	str	ip, [sl, #-1392]	; 0x570
    8564:	e50ab56c 	str	fp, [sl, #-1388]	; 0x56c
    8568:	e2438008 	sub	r8, r3, #8
    856c:	eb000381 	bl	9378 <task_stack_copy>
    8570:	e5880004 	str	r0, [r8, #4]
    8574:	e59d3000 	ldr	r3, [sp]
    8578:	e5941010 	ldr	r1, [r4, #16]
    857c:	e594c004 	ldr	ip, [r4, #4]
    8580:	e2872001 	add	r2, r7, #1
    8584:	e0833009 	add	r3, r3, r9
    8588:	e50a4560 	str	r4, [sl, #-1376]	; 0x560
    858c:	e50a1568 	str	r1, [sl, #-1384]	; 0x568
    8590:	e50a4564 	str	r4, [sl, #-1380]	; 0x564
    8594:	e1a07002 	mov	r7, r2
    8598:	e5813014 	str	r3, [r1, #20]
    859c:	e5843010 	str	r3, [r4, #16]
    85a0:	e58c2008 	str	r2, [ip, #8]
    85a4:	e580b008 	str	fp, [r0, #8]
    85a8:	eaffff64 	b	8340 <kmain+0x168>
    85ac:	e283a00c 	add	sl, r3, #12
    85b0:	e5900008 	ldr	r0, [r0, #8]
    85b4:	e594900c 	ldr	r9, [r4, #12]
    85b8:	e89a0c00 	ldm	sl, {sl, fp}
    85bc:	eb000222 	bl	8e4c <drivers_find_device_id>
    85c0:	e3500000 	cmp	r0, #0
    85c4:	0affff6a 	beq	8374 <kmain+0x19c>
    85c8:	e590306c 	ldr	r3, [r0, #108]	; 0x6c
    85cc:	e3530000 	cmp	r3, #0
    85d0:	0affff67 	beq	8374 <kmain+0x19c>
    85d4:	e1a0000a 	mov	r0, sl
    85d8:	e584800c 	str	r8, [r4, #12]
    85dc:	e1a0100b 	mov	r1, fp
    85e0:	e594a004 	ldr	sl, [r4, #4]
    85e4:	e593c004 	ldr	ip, [r3, #4]
    85e8:	e1a0e00f 	mov	lr, pc
    85ec:	e12fff1c 	bx	ip
    85f0:	e5943010 	ldr	r3, [r4, #16]
    85f4:	e58a0008 	str	r0, [sl, #8]
    85f8:	e584900c 	str	r9, [r4, #12]
    85fc:	eaffff4f 	b	8340 <kmain+0x168>
    8600:	e3e02000 	mvn	r2, #0
    8604:	e5900008 	ldr	r0, [r0, #8]
    8608:	e5832008 	str	r2, [r3, #8]
    860c:	eb00020e 	bl	8e4c <drivers_find_device_id>
    8610:	e3500000 	cmp	r0, #0
    8614:	0affff56 	beq	8374 <kmain+0x19c>
    8618:	e590306c 	ldr	r3, [r0, #108]	; 0x6c
    861c:	e3530000 	cmp	r3, #0
    8620:	0affff53 	beq	8374 <kmain+0x19c>
    8624:	e5949004 	ldr	r9, [r4, #4]
    8628:	e593c014 	ldr	ip, [r3, #20]
    862c:	e1a0e00f 	mov	lr, pc
    8630:	e12fff1c 	bx	ip
    8634:	e5943010 	ldr	r3, [r4, #16]
    8638:	e5890008 	str	r0, [r9, #8]
    863c:	eaffff3f 	b	8340 <kmain+0x168>
    8640:	e3a0002f 	mov	r0, #47	; 0x2f
    8644:	e1a05003 	mov	r5, r3
    8648:	e1a06003 	mov	r6, r3
    864c:	eb00019c 	bl	8cc4 <gpio_set_pin>
    8650:	eaffff6b 	b	8404 <kmain+0x22c>
    8654:	eb000243 	bl	8f68 <irq_disable>
    8658:	eaffff6a 	b	8408 <kmain+0x230>
    865c:	e59f0044 	ldr	r0, [pc, #68]	; 86a8 <kmain+0x4d0>
    8660:	eb00001f 	bl	86e4 <printk>
    8664:	eb0002ec 	bl	921c <irq_debug>
    8668:	e5943010 	ldr	r3, [r4, #16]
    866c:	eaffff33 	b	8340 <kmain+0x168>
    8670:	e5943004 	ldr	r3, [r4, #4]
    8674:	e59f0030 	ldr	r0, [pc, #48]	; 86ac <kmain+0x4d4>
    8678:	e583c008 	str	ip, [r3, #8]
    867c:	eb000018 	bl	86e4 <printk>
    8680:	e5943010 	ldr	r3, [r4, #16]
    8684:	eaffff2d 	b	8340 <kmain+0x168>
    8688:	00009f50 	andeq	r9, r0, r0, asr pc
    868c:	00009f68 	andeq	r9, r0, r8, ror #30
    8690:	000098bc 			; <UNDEFINED> instruction: 0x000098bc
    8694:	00009f84 	andeq	r9, r0, r4, lsl #31
    8698:	0000a008 	andeq	sl, r0, r8
    869c:	0000a01c 	andeq	sl, r0, ip, lsl r0
    86a0:	00009fec 	andeq	r9, r0, ip, ror #31
    86a4:	00009fc8 	andeq	r9, r0, r8, asr #31
    86a8:	00009ff8 	strdeq	r9, [r0], -r8
    86ac:	00009fa0 	andeq	r9, r0, r0, lsr #31

000086b0 <crashdump>:
    86b0:	e92d4008 	push	{r3, lr}
    86b4:	e59f0004 	ldr	r0, [pc, #4]	; 86c0 <crashdump+0x10>
    86b8:	eb000009 	bl	86e4 <printk>
    86bc:	eafffffe 	b	86bc <crashdump+0xc>
    86c0:	0000a030 	andeq	sl, r0, r0, lsr r0

000086c4 <get_krn_mode>:
    86c4:	e10f0000 	mrs	r0, CPSR
    86c8:	e200000f 	and	r0, r0, #15
    86cc:	e12fff1e 	bx	lr

000086d0 <_init_printk>:
    86d0:	e3a02000 	mov	r2, #0
    86d4:	e59f3004 	ldr	r3, [pc, #4]	; 86e0 <_init_printk+0x10>
    86d8:	e5832000 	str	r2, [r3]
    86dc:	e12fff1e 	bx	lr
    86e0:	0000a280 	andeq	sl, r0, r0, lsl #5

000086e4 <printk>:
    86e4:	e92d000f 	push	{r0, r1, r2, r3}
    86e8:	e92d43f0 	push	{r4, r5, r6, r7, r8, r9, lr}
    86ec:	e59f53c4 	ldr	r5, [pc, #964]	; 8ab8 <printk+0x3d4>
    86f0:	e5953000 	ldr	r3, [r5]
    86f4:	e3530000 	cmp	r3, #0
    86f8:	e24dd014 	sub	sp, sp, #20
    86fc:	0a0000de 	beq	8a7c <printk+0x398>
    8700:	e5933004 	ldr	r3, [r3, #4]
    8704:	e59f03b0 	ldr	r0, [pc, #944]	; 8abc <printk+0x3d8>
    8708:	e3a01008 	mov	r1, #8
    870c:	e1a0e00f 	mov	lr, pc
    8710:	e12fff13 	bx	r3
    8714:	e59d4030 	ldr	r4, [sp, #48]	; 0x30
    8718:	e5d40000 	ldrb	r0, [r4]
    871c:	e3500000 	cmp	r0, #0
    8720:	0a00008b 	beq	8954 <printk+0x270>
    8724:	e59f7394 	ldr	r7, [pc, #916]	; 8ac0 <printk+0x3dc>
    8728:	e28d6030 	add	r6, sp, #48	; 0x30
    872c:	ea000009 	b	8758 <printk+0x74>
    8730:	e5953000 	ldr	r3, [r5]
    8734:	e5933008 	ldr	r3, [r3, #8]
    8738:	e1a0e00f 	mov	lr, pc
    873c:	e12fff13 	bx	r3
    8740:	e59d4030 	ldr	r4, [sp, #48]	; 0x30
    8744:	e5d40001 	ldrb	r0, [r4, #1]
    8748:	e2844001 	add	r4, r4, #1
    874c:	e3500000 	cmp	r0, #0
    8750:	e58d4030 	str	r4, [sp, #48]	; 0x30
    8754:	0a00007e 	beq	8954 <printk+0x270>
    8758:	e3500025 	cmp	r0, #37	; 0x25
    875c:	1afffff3 	bne	8730 <printk+0x4c>
    8760:	e5d43001 	ldrb	r3, [r4, #1]
    8764:	e2844001 	add	r4, r4, #1
    8768:	e2433058 	sub	r3, r3, #88	; 0x58
    876c:	e58d4030 	str	r4, [sp, #48]	; 0x30
    8770:	e2868004 	add	r8, r6, #4
    8774:	e3530020 	cmp	r3, #32
    8778:	979ff103 	ldrls	pc, [pc, r3, lsl #2]
    877c:	ea000057 	b	88e0 <printk+0x1fc>
    8780:	000088e8 	andeq	r8, r0, r8, ror #17
    8784:	000088e0 	andeq	r8, r0, r0, ror #17
    8788:	000088e0 	andeq	r8, r0, r0, ror #17
    878c:	000088e0 	andeq	r8, r0, r0, ror #17
    8790:	000088e0 	andeq	r8, r0, r0, ror #17
    8794:	000088e0 	andeq	r8, r0, r0, ror #17
    8798:	000088e0 	andeq	r8, r0, r0, ror #17
    879c:	000088e0 	andeq	r8, r0, r0, ror #17
    87a0:	000088e0 	andeq	r8, r0, r0, ror #17
    87a4:	000088e0 	andeq	r8, r0, r0, ror #17
    87a8:	000088e0 	andeq	r8, r0, r0, ror #17
    87ac:	000088e0 	andeq	r8, r0, r0, ror #17
    87b0:	00008854 	andeq	r8, r0, r4, asr r8
    87b4:	000088e0 	andeq	r8, r0, r0, ror #17
    87b8:	000088e0 	andeq	r8, r0, r0, ror #17
    87bc:	000088e0 	andeq	r8, r0, r0, ror #17
    87c0:	000088e0 	andeq	r8, r0, r0, ror #17
    87c4:	000088e0 	andeq	r8, r0, r0, ror #17
    87c8:	000088e0 	andeq	r8, r0, r0, ror #17
    87cc:	00008804 	andeq	r8, r0, r4, lsl #16
    87d0:	000088e0 	andeq	r8, r0, r0, ror #17
    87d4:	000088e0 	andeq	r8, r0, r0, ror #17
    87d8:	000088e0 	andeq	r8, r0, r0, ror #17
    87dc:	000088e0 	andeq	r8, r0, r0, ror #17
    87e0:	000088e0 	andeq	r8, r0, r0, ror #17
    87e4:	000088e0 	andeq	r8, r0, r0, ror #17
    87e8:	000088e0 	andeq	r8, r0, r0, ror #17
    87ec:	000088e0 	andeq	r8, r0, r0, ror #17
    87f0:	000088e0 	andeq	r8, r0, r0, ror #17
    87f4:	000088e0 	andeq	r8, r0, r0, ror #17
    87f8:	000088e0 	andeq	r8, r0, r0, ror #17
    87fc:	000088e0 	andeq	r8, r0, r0, ror #17
    8800:	000088e8 	andeq	r8, r0, r8, ror #17
    8804:	e5d63004 	ldrb	r3, [r6, #4]
    8808:	e353000f 	cmp	r3, #15
    880c:	979ff103 	ldrls	pc, [pc, r3, lsl #2]
    8810:	ea00008a 	b	8a40 <printk+0x35c>
    8814:	000089a0 	andeq	r8, r0, r0, lsr #19
    8818:	000089c0 	andeq	r8, r0, r0, asr #19
    881c:	000089e0 	andeq	r8, r0, r0, ror #19
    8820:	00008a00 	andeq	r8, r0, r0, lsl #20
    8824:	00008a40 	andeq	r8, r0, r0, asr #20
    8828:	00008a40 	andeq	r8, r0, r0, asr #20
    882c:	00008a40 	andeq	r8, r0, r0, asr #20
    8830:	00008a20 	andeq	r8, r0, r0, lsr #20
    8834:	00008a40 	andeq	r8, r0, r0, asr #20
    8838:	00008a40 	andeq	r8, r0, r0, asr #20
    883c:	00008a40 	andeq	r8, r0, r0, asr #20
    8840:	00008a40 	andeq	r8, r0, r0, asr #20
    8844:	00008a40 	andeq	r8, r0, r0, asr #20
    8848:	00008a40 	andeq	r8, r0, r0, asr #20
    884c:	00008a40 	andeq	r8, r0, r0, asr #20
    8850:	00008980 	andeq	r8, r0, r0, lsl #19
    8854:	e5969004 	ldr	r9, [r6, #4]
    8858:	e3590000 	cmp	r9, #0
    885c:	ba00007f 	blt	8a60 <printk+0x37c>
    8860:	0a00003f 	beq	8964 <printk+0x280>
    8864:	e28d1003 	add	r1, sp, #3
    8868:	e3a06000 	mov	r6, #0
    886c:	ea000000 	b	8874 <printk+0x190>
    8870:	e1a06002 	mov	r6, r2
    8874:	e0c23997 	smull	r3, r2, r7, r9
    8878:	e1a03fc9 	asr	r3, r9, #31
    887c:	e0633142 	rsb	r3, r3, r2, asr #2
    8880:	e2862001 	add	r2, r6, #1
    8884:	e3520009 	cmp	r2, #9
    8888:	d3a0c001 	movle	ip, #1
    888c:	c3a0c000 	movgt	ip, #0
    8890:	e3530000 	cmp	r3, #0
    8894:	d3a0c000 	movle	ip, #0
    8898:	e0830103 	add	r0, r3, r3, lsl #2
    889c:	e0490080 	sub	r0, r9, r0, lsl #1
    88a0:	e2800030 	add	r0, r0, #48	; 0x30
    88a4:	e20000ff 	and	r0, r0, #255	; 0xff
    88a8:	e35c0000 	cmp	ip, #0
    88ac:	e5e10001 	strb	r0, [r1, #1]!
    88b0:	e1a09003 	mov	r9, r3
    88b4:	1affffed 	bne	8870 <printk+0x18c>
    88b8:	e28d9004 	add	r9, sp, #4
    88bc:	e0896006 	add	r6, r9, r6
    88c0:	ea000000 	b	88c8 <printk+0x1e4>
    88c4:	e5760001 	ldrb	r0, [r6, #-1]!
    88c8:	e5953000 	ldr	r3, [r5]
    88cc:	e5933008 	ldr	r3, [r3, #8]
    88d0:	e1a0e00f 	mov	lr, pc
    88d4:	e12fff13 	bx	r3
    88d8:	e1560009 	cmp	r6, r9
    88dc:	1afffff8 	bne	88c4 <printk+0x1e0>
    88e0:	e1a06008 	mov	r6, r8
    88e4:	eaffff96 	b	8744 <printk+0x60>
    88e8:	e5953000 	ldr	r3, [r5]
    88ec:	e3a00030 	mov	r0, #48	; 0x30
    88f0:	e5933008 	ldr	r3, [r3, #8]
    88f4:	e5966004 	ldr	r6, [r6, #4]
    88f8:	e1a0e00f 	mov	lr, pc
    88fc:	e12fff13 	bx	r3
    8900:	e5953000 	ldr	r3, [r5]
    8904:	e3a00078 	mov	r0, #120	; 0x78
    8908:	e5933008 	ldr	r3, [r3, #8]
    890c:	e1a0e00f 	mov	lr, pc
    8910:	e12fff13 	bx	r3
    8914:	e3a09020 	mov	r9, #32
    8918:	e1a00956 	asr	r0, r6, r9
    891c:	e200000f 	and	r0, r0, #15
    8920:	e3500009 	cmp	r0, #9
    8924:	e5953000 	ldr	r3, [r5]
    8928:	82800037 	addhi	r0, r0, #55	; 0x37
    892c:	92800030 	addls	r0, r0, #48	; 0x30
    8930:	e20000ff 	and	r0, r0, #255	; 0xff
    8934:	e2499004 	sub	r9, r9, #4
    8938:	e5933008 	ldr	r3, [r3, #8]
    893c:	e1a0e00f 	mov	lr, pc
    8940:	e12fff13 	bx	r3
    8944:	e3790004 	cmn	r9, #4
    8948:	1afffff2 	bne	8918 <printk+0x234>
    894c:	e1a06008 	mov	r6, r8
    8950:	eaffff7b 	b	8744 <printk+0x60>
    8954:	e28dd014 	add	sp, sp, #20
    8958:	e8bd43f0 	pop	{r4, r5, r6, r7, r8, r9, lr}
    895c:	e28dd010 	add	sp, sp, #16
    8960:	e12fff1e 	bx	lr
    8964:	e5953000 	ldr	r3, [r5]
    8968:	e3a00030 	mov	r0, #48	; 0x30
    896c:	e5933008 	ldr	r3, [r3, #8]
    8970:	e1a0e00f 	mov	lr, pc
    8974:	e12fff13 	bx	r3
    8978:	e1a06008 	mov	r6, r8
    897c:	eaffff70 	b	8744 <printk+0x60>
    8980:	e5953000 	ldr	r3, [r5]
    8984:	e3a01003 	mov	r1, #3
    8988:	e5933004 	ldr	r3, [r3, #4]
    898c:	e59f0130 	ldr	r0, [pc, #304]	; 8ac4 <printk+0x3e0>
    8990:	e1a06008 	mov	r6, r8
    8994:	e1a0e00f 	mov	lr, pc
    8998:	e12fff13 	bx	r3
    899c:	eaffff68 	b	8744 <printk+0x60>
    89a0:	e5953000 	ldr	r3, [r5]
    89a4:	e3a01003 	mov	r1, #3
    89a8:	e5933004 	ldr	r3, [r3, #4]
    89ac:	e59f0114 	ldr	r0, [pc, #276]	; 8ac8 <printk+0x3e4>
    89b0:	e1a06008 	mov	r6, r8
    89b4:	e1a0e00f 	mov	lr, pc
    89b8:	e12fff13 	bx	r3
    89bc:	eaffff60 	b	8744 <printk+0x60>
    89c0:	e5953000 	ldr	r3, [r5]
    89c4:	e3a01003 	mov	r1, #3
    89c8:	e5933004 	ldr	r3, [r3, #4]
    89cc:	e59f00f8 	ldr	r0, [pc, #248]	; 8acc <printk+0x3e8>
    89d0:	e1a06008 	mov	r6, r8
    89d4:	e1a0e00f 	mov	lr, pc
    89d8:	e12fff13 	bx	r3
    89dc:	eaffff58 	b	8744 <printk+0x60>
    89e0:	e5953000 	ldr	r3, [r5]
    89e4:	e3a01003 	mov	r1, #3
    89e8:	e5933004 	ldr	r3, [r3, #4]
    89ec:	e59f00dc 	ldr	r0, [pc, #220]	; 8ad0 <printk+0x3ec>
    89f0:	e1a06008 	mov	r6, r8
    89f4:	e1a0e00f 	mov	lr, pc
    89f8:	e12fff13 	bx	r3
    89fc:	eaffff50 	b	8744 <printk+0x60>
    8a00:	e5953000 	ldr	r3, [r5]
    8a04:	e3a01003 	mov	r1, #3
    8a08:	e5933004 	ldr	r3, [r3, #4]
    8a0c:	e59f00c0 	ldr	r0, [pc, #192]	; 8ad4 <printk+0x3f0>
    8a10:	e1a06008 	mov	r6, r8
    8a14:	e1a0e00f 	mov	lr, pc
    8a18:	e12fff13 	bx	r3
    8a1c:	eaffff48 	b	8744 <printk+0x60>
    8a20:	e5953000 	ldr	r3, [r5]
    8a24:	e3a01003 	mov	r1, #3
    8a28:	e5933004 	ldr	r3, [r3, #4]
    8a2c:	e59f00a4 	ldr	r0, [pc, #164]	; 8ad8 <printk+0x3f4>
    8a30:	e1a06008 	mov	r6, r8
    8a34:	e1a0e00f 	mov	lr, pc
    8a38:	e12fff13 	bx	r3
    8a3c:	eaffff40 	b	8744 <printk+0x60>
    8a40:	e5953000 	ldr	r3, [r5]
    8a44:	e3a01003 	mov	r1, #3
    8a48:	e5933004 	ldr	r3, [r3, #4]
    8a4c:	e59f0088 	ldr	r0, [pc, #136]	; 8adc <printk+0x3f8>
    8a50:	e1a06008 	mov	r6, r8
    8a54:	e1a0e00f 	mov	lr, pc
    8a58:	e12fff13 	bx	r3
    8a5c:	eaffff38 	b	8744 <printk+0x60>
    8a60:	e5953000 	ldr	r3, [r5]
    8a64:	e3a0002d 	mov	r0, #45	; 0x2d
    8a68:	e5933008 	ldr	r3, [r3, #8]
    8a6c:	e2699000 	rsb	r9, r9, #0
    8a70:	e1a0e00f 	mov	lr, pc
    8a74:	e12fff13 	bx	r3
    8a78:	eaffff79 	b	8864 <printk+0x180>
    8a7c:	e59f005c 	ldr	r0, [pc, #92]	; 8ae0 <printk+0x3fc>
    8a80:	eb0000df 	bl	8e04 <drivers_find_device>
    8a84:	e3500000 	cmp	r0, #0
    8a88:	0a000002 	beq	8a98 <printk+0x3b4>
    8a8c:	e5d03068 	ldrb	r3, [r0, #104]	; 0x68
    8a90:	e3530001 	cmp	r3, #1
    8a94:	0a000001 	beq	8aa0 <printk+0x3bc>
    8a98:	e5953000 	ldr	r3, [r5]
    8a9c:	eaffff17 	b	8700 <printk+0x1c>
    8aa0:	e590306c 	ldr	r3, [r0, #108]	; 0x6c
    8aa4:	e5853000 	str	r3, [r5]
    8aa8:	e5933010 	ldr	r3, [r3, #16]
    8aac:	e1a0e00f 	mov	lr, pc
    8ab0:	e12fff13 	bx	r3
    8ab4:	eafffff7 	b	8a98 <printk+0x3b4>
    8ab8:	0000a280 	andeq	sl, r0, r0, lsl #5
    8abc:	0000a040 	andeq	sl, r0, r0, asr #32
    8ac0:	66666667 	strbtvs	r6, [r6], -r7, ror #12
    8ac4:	0000a060 	andeq	sl, r0, r0, rrx
    8ac8:	0000a054 	andeq	sl, r0, r4, asr r0
    8acc:	0000a05c 	andeq	sl, r0, ip, asr r0
    8ad0:	0000a058 	andeq	sl, r0, r8, asr r0
    8ad4:	0000a050 	andeq	sl, r0, r0, asr r0
    8ad8:	0000a04c 	andeq	sl, r0, ip, asr #32
    8adc:	0000a064 	andeq	sl, r0, r4, rrx
    8ae0:	0000a038 	andeq	sl, r0, r8, lsr r0

00008ae4 <_k_memcpy>:
    8ae4:	e3520000 	cmp	r2, #0
    8ae8:	012fff1e 	bxeq	lr
    8aec:	e2403001 	sub	r3, r0, #1
    8af0:	e0812002 	add	r2, r1, r2
    8af4:	e4d1c001 	ldrb	ip, [r1], #1
    8af8:	e1510002 	cmp	r1, r2
    8afc:	e5e3c001 	strb	ip, [r3, #1]!
    8b00:	1afffffb 	bne	8af4 <_k_memcpy+0x10>
    8b04:	e12fff1e 	bx	lr

00008b08 <_k_memset>:
    8b08:	e3520000 	cmp	r2, #0
    8b0c:	012fff1e 	bxeq	lr
    8b10:	e0802002 	add	r2, r0, r2
    8b14:	e4c01001 	strb	r1, [r0], #1
    8b18:	e1500002 	cmp	r0, r2
    8b1c:	1afffffc 	bne	8b14 <_k_memset+0xc>
    8b20:	e12fff1e 	bx	lr

00008b24 <_k_strcmp>:
    8b24:	e52de004 	push	{lr}		; (str lr, [sp, #-4]!)
    8b28:	e1a0e000 	mov	lr, r0
    8b2c:	e4d03001 	ldrb	r3, [r0], #1
    8b30:	e3530000 	cmp	r3, #0
    8b34:	e1a0c001 	mov	ip, r1
    8b38:	0a000009 	beq	8b64 <_k_strcmp+0x40>
    8b3c:	e4d12001 	ldrb	r2, [r1], #1
    8b40:	e3520000 	cmp	r2, #0
    8b44:	0a00000a 	beq	8b74 <_k_strcmp+0x50>
    8b48:	e1530002 	cmp	r3, r2
    8b4c:	0afffff5 	beq	8b28 <_k_strcmp+0x4>
    8b50:	e5de3001 	ldrb	r3, [lr, #1]
    8b54:	e5dc0001 	ldrb	r0, [ip, #1]
    8b58:	e49de004 	pop	{lr}		; (ldr lr, [sp], #4)
    8b5c:	e0600003 	rsb	r0, r0, r3
    8b60:	e12fff1e 	bx	lr
    8b64:	e5d10000 	ldrb	r0, [r1]
    8b68:	e49de004 	pop	{lr}		; (ldr lr, [sp], #4)
    8b6c:	e0600003 	rsb	r0, r0, r3
    8b70:	e12fff1e 	bx	lr
    8b74:	e1a00002 	mov	r0, r2
    8b78:	e49de004 	pop	{lr}		; (ldr lr, [sp], #4)
    8b7c:	e0600003 	rsb	r0, r0, r3
    8b80:	e12fff1e 	bx	lr

00008b84 <_k_strlen>:
    8b84:	e5d01000 	ldrb	r1, [r0]
    8b88:	e3510000 	cmp	r1, #0
    8b8c:	e2803001 	add	r3, r0, #1
    8b90:	0a000003 	beq	8ba4 <_k_strlen+0x20>
    8b94:	e0601003 	rsb	r1, r0, r3
    8b98:	e4d32001 	ldrb	r2, [r3], #1
    8b9c:	e3520000 	cmp	r2, #0
    8ba0:	1afffffb 	bne	8b94 <_k_strlen+0x10>
    8ba4:	e1a00001 	mov	r0, r1
    8ba8:	e12fff1e 	bx	lr

00008bac <_k_strcpy>:
    8bac:	e5d13000 	ldrb	r3, [r1]
    8bb0:	e3530000 	cmp	r3, #0
    8bb4:	e1a0c000 	mov	ip, r0
    8bb8:	0a00000a 	beq	8be8 <_k_strcpy+0x3c>
    8bbc:	e3a02000 	mov	r2, #0
    8bc0:	e2400001 	sub	r0, r0, #1
    8bc4:	e5e03001 	strb	r3, [r0, #1]!
    8bc8:	e5f13001 	ldrb	r3, [r1, #1]!
    8bcc:	e3530000 	cmp	r3, #0
    8bd0:	e2822001 	add	r2, r2, #1
    8bd4:	1afffffa 	bne	8bc4 <_k_strcpy+0x18>
    8bd8:	e3a03000 	mov	r3, #0
    8bdc:	e1a0000c 	mov	r0, ip
    8be0:	e7cc3002 	strb	r3, [ip, r2]
    8be4:	e12fff1e 	bx	lr
    8be8:	e1a02003 	mov	r2, r3
    8bec:	eafffff9 	b	8bd8 <_k_strcpy+0x2c>

00008bf0 <rb_init>:
    8bf0:	e3a03000 	mov	r3, #0
    8bf4:	e5803004 	str	r3, [r0, #4]
    8bf8:	e5803000 	str	r3, [r0]
    8bfc:	e12fff1e 	bx	lr

00008c00 <rb_push>:
    8c00:	e5903004 	ldr	r3, [r0, #4]
    8c04:	e2832001 	add	r2, r3, #1
    8c08:	e3520c02 	cmp	r2, #512	; 0x200
    8c0c:	e0803003 	add	r3, r0, r3
    8c10:	e5802004 	str	r2, [r0, #4]
    8c14:	e5c31008 	strb	r1, [r3, #8]
    8c18:	83a03000 	movhi	r3, #0
    8c1c:	85803004 	strhi	r3, [r0, #4]
    8c20:	e12fff1e 	bx	lr

00008c24 <rb_pop>:
    8c24:	e1a03000 	mov	r3, r0
    8c28:	e590c000 	ldr	ip, [r0]
    8c2c:	e28c2001 	add	r2, ip, #1
    8c30:	e683200c 	str	r2, [r3], ip
    8c34:	e5d33008 	ldrb	r3, [r3, #8]
    8c38:	e5c13000 	strb	r3, [r1]
    8c3c:	e5903000 	ldr	r3, [r0]
    8c40:	e3530c02 	cmp	r3, #512	; 0x200
    8c44:	83a03000 	movhi	r3, #0
    8c48:	85803000 	strhi	r3, [r0]
    8c4c:	e12fff1e 	bx	lr

00008c50 <rb_len>:
    8c50:	e890000c 	ldm	r0, {r2, r3}
    8c54:	e1530002 	cmp	r3, r2
    8c58:	33a00c02 	movcc	r0, #512	; 0x200
    8c5c:	23a00000 	movcs	r0, #0
    8c60:	e0623003 	rsb	r3, r2, r3
    8c64:	e0830000 	add	r0, r3, r0
    8c68:	e12fff1e 	bx	lr

00008c6c <gpio_enable_pin>:
    8c6c:	e92d40f8 	push	{r3, r4, r5, r6, r7, lr}
    8c70:	e59f4048 	ldr	r4, [pc, #72]	; 8cc0 <gpio_enable_pin+0x54>
    8c74:	e0843490 	umull	r3, r4, r0, r4
    8c78:	e1a041a4 	lsr	r4, r4, #3
    8c7c:	e284653f 	add	r6, r4, #264241152	; 0xfc00000
    8c80:	e2866702 	add	r6, r6, #524288	; 0x80000
    8c84:	e1a05000 	mov	r5, r0
    8c88:	e1a06106 	lsl	r6, r6, #2
    8c8c:	e1a00006 	mov	r0, r6
    8c90:	e1a07001 	mov	r7, r1
    8c94:	ebfffcf7 	bl	8078 <mmio_read>
    8c98:	e3a03007 	mov	r3, #7
    8c9c:	e0844104 	add	r4, r4, r4, lsl #2
    8ca0:	e0454084 	sub	r4, r5, r4, lsl #1
    8ca4:	e0841084 	add	r1, r4, r4, lsl #1
    8ca8:	e1c00113 	bic	r0, r0, r3, lsl r1
    8cac:	e1801117 	orr	r1, r0, r7, lsl r1
    8cb0:	e1a00006 	mov	r0, r6
    8cb4:	ebfffced 	bl	8070 <mmio_write>
    8cb8:	e8bd40f8 	pop	{r3, r4, r5, r6, r7, lr}
    8cbc:	e12fff1e 	bx	lr
    8cc0:	cccccccd 	stclgt	12, cr12, [ip], {205}	; 0xcd

00008cc4 <gpio_set_pin>:
    8cc4:	e92d4008 	push	{r3, lr}
    8cc8:	e1a03000 	mov	r3, r0
    8ccc:	e3a01001 	mov	r1, #1
    8cd0:	e350001f 	cmp	r0, #31
    8cd4:	82433020 	subhi	r3, r3, #32
    8cd8:	91a01311 	lslls	r1, r1, r3
    8cdc:	81a01311 	lslhi	r1, r1, r3
    8ce0:	959f000c 	ldrls	r0, [pc, #12]	; 8cf4 <gpio_set_pin+0x30>
    8ce4:	859f0008 	ldrhi	r0, [pc, #8]	; 8cf4 <gpio_set_pin+0x30>
    8ce8:	ebfffce0 	bl	8070 <mmio_write>
    8cec:	e8bd4008 	pop	{r3, lr}
    8cf0:	e12fff1e 	bx	lr
    8cf4:	3f20001c 	svccc	0x0020001c

00008cf8 <gpio_clear_pin>:
    8cf8:	e92d4008 	push	{r3, lr}
    8cfc:	e59f000c 	ldr	r0, [pc, #12]	; 8d10 <gpio_clear_pin+0x18>
    8d00:	e3a01000 	mov	r1, #0
    8d04:	ebfffcd9 	bl	8070 <mmio_write>
    8d08:	e8bd4008 	pop	{r3, lr}
    8d0c:	e12fff1e 	bx	lr
    8d10:	3f20001c 	svccc	0x0020001c

00008d14 <init_device_driver_struct>:
    8d14:	e3a01000 	mov	r1, #0
    8d18:	e59f002c 	ldr	r0, [pc, #44]	; 8d4c <init_device_driver_struct+0x38>
    8d1c:	e59f302c 	ldr	r3, [pc, #44]	; 8d50 <init_device_driver_struct+0x3c>
    8d20:	e1a02001 	mov	r2, r1
    8d24:	e5801000 	str	r1, [r0]
    8d28:	e2831e46 	add	r1, r3, #1120	; 0x460
    8d2c:	e5832000 	str	r2, [r3]
    8d30:	e5032008 	str	r2, [r3, #-8]
    8d34:	e543206c 	strb	r2, [r3, #-108]	; 0x6c
    8d38:	e5432004 	strb	r2, [r3, #-4]
    8d3c:	e2833070 	add	r3, r3, #112	; 0x70
    8d40:	e1530001 	cmp	r3, r1
    8d44:	1afffff8 	bne	8d2c <init_device_driver_struct+0x18>
    8d48:	e12fff1e 	bx	lr
    8d4c:	0000a284 	andeq	sl, r0, r4, lsl #5
    8d50:	0000a378 	andeq	sl, r0, r8, ror r3

00008d54 <drivers_register_serial>:
    8d54:	e92d43f8 	push	{r3, r4, r5, r6, r7, r8, r9, lr}
    8d58:	e59f609c 	ldr	r6, [pc, #156]	; 8dfc <drivers_register_serial+0xa8>
    8d5c:	e5963000 	ldr	r3, [r6]
    8d60:	e59f8098 	ldr	r8, [pc, #152]	; 8e00 <drivers_register_serial+0xac>
    8d64:	e3530000 	cmp	r3, #0
    8d68:	e1a09000 	mov	r9, r0
    8d6c:	e1a07001 	mov	r7, r1
    8d70:	c3a04000 	movgt	r4, #0
    8d74:	c1a05008 	movgt	r5, r8
    8d78:	ca000004 	bgt	8d90 <drivers_register_serial+0x3c>
    8d7c:	ea00000c 	b	8db4 <drivers_register_serial+0x60>
    8d80:	e5963000 	ldr	r3, [r6]
    8d84:	e1530004 	cmp	r3, r4
    8d88:	e2855070 	add	r5, r5, #112	; 0x70
    8d8c:	da000008 	ble	8db4 <drivers_register_serial+0x60>
    8d90:	e1a00005 	mov	r0, r5
    8d94:	e1a01007 	mov	r1, r7
    8d98:	ebffff61 	bl	8b24 <_k_strcmp>
    8d9c:	e3500000 	cmp	r0, #0
    8da0:	e2844001 	add	r4, r4, #1
    8da4:	1afffff5 	bne	8d80 <drivers_register_serial+0x2c>
    8da8:	e3e00000 	mvn	r0, #0
    8dac:	e8bd43f8 	pop	{r3, r4, r5, r6, r7, r8, r9, lr}
    8db0:	e12fff1e 	bx	lr
    8db4:	e3a0c001 	mov	ip, #1
    8db8:	e0632183 	rsb	r2, r3, r3, lsl #3
    8dbc:	e0882202 	add	r2, r8, r2, lsl #4
    8dc0:	e083300c 	add	r3, r3, ip
    8dc4:	e582906c 	str	r9, [r2, #108]	; 0x6c
    8dc8:	e5823064 	str	r3, [r2, #100]	; 0x64
    8dcc:	e1a01007 	mov	r1, r7
    8dd0:	e1a00002 	mov	r0, r2
    8dd4:	e5c2c068 	strb	ip, [r2, #104]	; 0x68
    8dd8:	ebffff73 	bl	8bac <_k_strcpy>
    8ddc:	e5963000 	ldr	r3, [r6]
    8de0:	e2833001 	add	r3, r3, #1
    8de4:	e0632183 	rsb	r2, r3, r3, lsl #3
    8de8:	e0888202 	add	r8, r8, r2, lsl #4
    8dec:	e5980064 	ldr	r0, [r8, #100]	; 0x64
    8df0:	e5863000 	str	r3, [r6]
    8df4:	e8bd43f8 	pop	{r3, r4, r5, r6, r7, r8, r9, lr}
    8df8:	e12fff1e 	bx	lr
    8dfc:	0000a284 	andeq	sl, r0, r4, lsl #5
    8e00:	0000a30c 	andeq	sl, r0, ip, lsl #6

00008e04 <drivers_find_device>:
    8e04:	e92d40f8 	push	{r3, r4, r5, r6, r7, lr}
    8e08:	e1a07000 	mov	r7, r0
    8e0c:	e3a04000 	mov	r4, #0
    8e10:	e59f6030 	ldr	r6, [pc, #48]	; 8e48 <drivers_find_device+0x44>
    8e14:	e0865004 	add	r5, r6, r4
    8e18:	e1a00005 	mov	r0, r5
    8e1c:	e1a01007 	mov	r1, r7
    8e20:	ebffff3f 	bl	8b24 <_k_strcmp>
    8e24:	e3500000 	cmp	r0, #0
    8e28:	e2844070 	add	r4, r4, #112	; 0x70
    8e2c:	0a000002 	beq	8e3c <drivers_find_device+0x38>
    8e30:	e3540e46 	cmp	r4, #1120	; 0x460
    8e34:	1afffff6 	bne	8e14 <drivers_find_device+0x10>
    8e38:	e3a05000 	mov	r5, #0
    8e3c:	e1a00005 	mov	r0, r5
    8e40:	e8bd40f8 	pop	{r3, r4, r5, r6, r7, lr}
    8e44:	e12fff1e 	bx	lr
    8e48:	0000a30c 	andeq	sl, r0, ip, lsl #6

00008e4c <drivers_find_device_id>:
    8e4c:	e350000a 	cmp	r0, #10
    8e50:	ca000009 	bgt	8e7c <drivers_find_device_id+0x30>
    8e54:	e59fc034 	ldr	ip, [pc, #52]	; 8e90 <drivers_find_device_id+0x44>
    8e58:	e3a03000 	mov	r3, #0
    8e5c:	e1a0200c 	mov	r2, ip
    8e60:	e5921064 	ldr	r1, [r2, #100]	; 0x64
    8e64:	e1510000 	cmp	r1, r0
    8e68:	0a000005 	beq	8e84 <drivers_find_device_id+0x38>
    8e6c:	e2833001 	add	r3, r3, #1
    8e70:	e353000a 	cmp	r3, #10
    8e74:	e2822070 	add	r2, r2, #112	; 0x70
    8e78:	1afffff8 	bne	8e60 <drivers_find_device_id+0x14>
    8e7c:	e3a00000 	mov	r0, #0
    8e80:	e12fff1e 	bx	lr
    8e84:	e0633183 	rsb	r3, r3, r3, lsl #3
    8e88:	e08c0203 	add	r0, ip, r3, lsl #4
    8e8c:	e12fff1e 	bx	lr
    8e90:	0000a30c 	andeq	sl, r0, ip, lsl #6

00008e94 <irq_init_data>:
    8e94:	e3a02000 	mov	r2, #0
    8e98:	e3e0c000 	mvn	ip, #0
    8e9c:	e59f3028 	ldr	r3, [pc, #40]	; 8ecc <irq_init_data+0x38>
    8ea0:	e2830078 	add	r0, r3, #120	; 0x78
    8ea4:	e5832000 	str	r2, [r3]
    8ea8:	e543c004 	strb	ip, [r3, #-4]
    8eac:	e5832004 	str	r2, [r3, #4]
    8eb0:	e283300c 	add	r3, r3, #12
    8eb4:	e1530000 	cmp	r3, r0
    8eb8:	e3a01000 	mov	r1, #0
    8ebc:	1afffff8 	bne	8ea4 <irq_init_data+0x10>
    8ec0:	e59f3008 	ldr	r3, [pc, #8]	; 8ed0 <irq_init_data+0x3c>
    8ec4:	e5831078 	str	r1, [r3, #120]	; 0x78
    8ec8:	e12fff1e 	bx	lr
    8ecc:	0000a28c 	andeq	sl, r0, ip, lsl #5
    8ed0:	0000a288 	andeq	sl, r0, r8, lsl #5

00008ed4 <irq_global_enable>:
    8ed4:	e92d4008 	push	{r3, lr}
    8ed8:	ebfffc6a 	bl	8088 <__irq_global_enable>
    8edc:	e8bd4008 	pop	{r3, lr}
    8ee0:	e12fff1e 	bx	lr

00008ee4 <irq_global_disable>:
    8ee4:	e92d4008 	push	{r3, lr}
    8ee8:	ebfffc6a 	bl	8098 <__irq_global_disable>
    8eec:	e8bd4008 	pop	{r3, lr}
    8ef0:	e12fff1e 	bx	lr

00008ef4 <irq_global_reset>:
    8ef4:	e92d4008 	push	{r3, lr}
    8ef8:	ebfffc66 	bl	8098 <__irq_global_disable>
    8efc:	ebfffc61 	bl	8088 <__irq_global_enable>
    8f00:	e8bd4008 	pop	{r3, lr}
    8f04:	e12fff1e 	bx	lr

00008f08 <irq_enable>:
    8f08:	e92d4070 	push	{r4, r5, r6, lr}
    8f0c:	e2505001 	subs	r5, r0, #1
    8f10:	4280001e 	addmi	r0, r0, #30
    8f14:	51a00005 	movpl	r0, r5
    8f18:	e1b042c0 	asrs	r4, r0, #5
    8f1c:	0a00000c 	beq	8f54 <irq_enable+0x4c>
    8f20:	e59f3034 	ldr	r3, [pc, #52]	; 8f5c <irq_enable+0x54>
    8f24:	e3540001 	cmp	r4, #1
    8f28:	e59f6030 	ldr	r6, [pc, #48]	; 8f60 <irq_enable+0x58>
    8f2c:	01a06003 	moveq	r6, r3
    8f30:	e1a00006 	mov	r0, r6
    8f34:	ebfffc4f 	bl	8078 <mmio_read>
    8f38:	e3a01001 	mov	r1, #1
    8f3c:	e0454284 	sub	r4, r5, r4, lsl #5
    8f40:	e1801411 	orr	r1, r0, r1, lsl r4
    8f44:	e1a00006 	mov	r0, r6
    8f48:	ebfffc48 	bl	8070 <mmio_write>
    8f4c:	e8bd4070 	pop	{r4, r5, r6, lr}
    8f50:	e12fff1e 	bx	lr
    8f54:	e59f6008 	ldr	r6, [pc, #8]	; 8f64 <irq_enable+0x5c>
    8f58:	eafffff4 	b	8f30 <irq_enable+0x28>
    8f5c:	3f00b210 	svccc	0x0000b210
    8f60:	3f00b214 	svccc	0x0000b214
    8f64:	3f00b218 	svccc	0x0000b218

00008f68 <irq_disable>:
    8f68:	e92d4070 	push	{r4, r5, r6, lr}
    8f6c:	e2505001 	subs	r5, r0, #1
    8f70:	4280001e 	addmi	r0, r0, #30
    8f74:	51a00005 	movpl	r0, r5
    8f78:	e1b042c0 	asrs	r4, r0, #5
    8f7c:	0a00000c 	beq	8fb4 <irq_disable+0x4c>
    8f80:	e59f3034 	ldr	r3, [pc, #52]	; 8fbc <irq_disable+0x54>
    8f84:	e3540001 	cmp	r4, #1
    8f88:	e59f6030 	ldr	r6, [pc, #48]	; 8fc0 <irq_disable+0x58>
    8f8c:	01a06003 	moveq	r6, r3
    8f90:	e1a00006 	mov	r0, r6
    8f94:	ebfffc37 	bl	8078 <mmio_read>
    8f98:	e3a01001 	mov	r1, #1
    8f9c:	e0454284 	sub	r4, r5, r4, lsl #5
    8fa0:	e1c01411 	bic	r1, r0, r1, lsl r4
    8fa4:	e1a00006 	mov	r0, r6
    8fa8:	ebfffc30 	bl	8070 <mmio_write>
    8fac:	e8bd4070 	pop	{r4, r5, r6, lr}
    8fb0:	e12fff1e 	bx	lr
    8fb4:	e59f6008 	ldr	r6, [pc, #8]	; 8fc4 <irq_disable+0x5c>
    8fb8:	eafffff4 	b	8f90 <irq_disable+0x28>
    8fbc:	3f00b21c 	svccc	0x0000b21c
    8fc0:	3f00b220 	svccc	0x0000b220
    8fc4:	3f00b224 	svccc	0x0000b224

00008fc8 <irq_handler_free>:
    8fc8:	e3a02000 	mov	r2, #0
    8fcc:	e1a03002 	mov	r3, r2
    8fd0:	e59fc040 	ldr	ip, [pc, #64]	; 9018 <irq_handler_free+0x50>
    8fd4:	e7dc1002 	ldrb	r1, [ip, r2]
    8fd8:	e1510000 	cmp	r1, r0
    8fdc:	e59f1034 	ldr	r1, [pc, #52]	; 9018 <irq_handler_free+0x50>
    8fe0:	0a000004 	beq	8ff8 <irq_handler_free+0x30>
    8fe4:	e2833001 	add	r3, r3, #1
    8fe8:	e353000a 	cmp	r3, #10
    8fec:	e282200c 	add	r2, r2, #12
    8ff0:	1afffff7 	bne	8fd4 <irq_handler_free+0xc>
    8ff4:	e12fff1e 	bx	lr
    8ff8:	e3a02000 	mov	r2, #0
    8ffc:	e0833083 	add	r3, r3, r3, lsl #1
    9000:	e1a03103 	lsl	r3, r3, #2
    9004:	e081c003 	add	ip, r1, r3
    9008:	e7c12003 	strb	r2, [r1, r3]
    900c:	e58c2004 	str	r2, [ip, #4]
    9010:	e58c2008 	str	r2, [ip, #8]
    9014:	eaffffd3 	b	8f68 <irq_disable>
    9018:	0000a288 	andeq	sl, r0, r8, lsl #5

0000901c <irq_handler_register>:
    901c:	e3a03000 	mov	r3, #0
    9020:	e92d4010 	push	{r4, lr}
    9024:	e1a0c000 	mov	ip, r0
    9028:	e59f005c 	ldr	r0, [pc, #92]	; 908c <irq_handler_register+0x70>
    902c:	e7d02003 	ldrb	r2, [r0, r3]
    9030:	e152000c 	cmp	r2, ip
    9034:	e283300c 	add	r3, r3, #12
    9038:	e59f404c 	ldr	r4, [pc, #76]	; 908c <irq_handler_register+0x70>
    903c:	0a00000f 	beq	9080 <irq_handler_register+0x64>
    9040:	e3530078 	cmp	r3, #120	; 0x78
    9044:	1afffff8 	bne	902c <irq_handler_register+0x10>
    9048:	e3a0e001 	mov	lr, #1
    904c:	e5943078 	ldr	r3, [r4, #120]	; 0x78
    9050:	e0833083 	add	r3, r3, r3, lsl #1
    9054:	e1a03103 	lsl	r3, r3, #2
    9058:	e0842003 	add	r2, r4, r3
    905c:	e1a0000c 	mov	r0, ip
    9060:	e9824002 	stmib	r2, {r1, lr}
    9064:	e7c4c003 	strb	ip, [r4, r3]
    9068:	ebffffa6 	bl	8f08 <irq_enable>
    906c:	e5940078 	ldr	r0, [r4, #120]	; 0x78
    9070:	e2803001 	add	r3, r0, #1
    9074:	e5843078 	str	r3, [r4, #120]	; 0x78
    9078:	e8bd4010 	pop	{r4, lr}
    907c:	e12fff1e 	bx	lr
    9080:	e3e00000 	mvn	r0, #0
    9084:	e8bd4010 	pop	{r4, lr}
    9088:	e12fff1e 	bx	lr
    908c:	0000a288 	andeq	sl, r0, r8, lsl #5

00009090 <irq_find_handler>:
    9090:	e3a03000 	mov	r3, #0
    9094:	e1a02003 	mov	r2, r3
    9098:	e59fc030 	ldr	ip, [pc, #48]	; 90d0 <irq_find_handler+0x40>
    909c:	e7dc1003 	ldrb	r1, [ip, r3]
    90a0:	e1510000 	cmp	r1, r0
    90a4:	e59f1024 	ldr	r1, [pc, #36]	; 90d0 <irq_find_handler+0x40>
    90a8:	0a000005 	beq	90c4 <irq_find_handler+0x34>
    90ac:	e2822001 	add	r2, r2, #1
    90b0:	e352000a 	cmp	r2, #10
    90b4:	e283300c 	add	r3, r3, #12
    90b8:	1afffff7 	bne	909c <irq_find_handler+0xc>
    90bc:	e3a00000 	mov	r0, #0
    90c0:	e12fff1e 	bx	lr
    90c4:	e0822082 	add	r2, r2, r2, lsl #1
    90c8:	e0810102 	add	r0, r1, r2, lsl #2
    90cc:	e12fff1e 	bx	lr
    90d0:	0000a288 	andeq	sl, r0, r8, lsl #5

000090d4 <irq_waiting2>:
    90d4:	e92d41f0 	push	{r4, r5, r6, r7, r8, lr}
    90d8:	e1a08000 	mov	r8, r0
    90dc:	e59f0060 	ldr	r0, [pc, #96]	; 9144 <irq_waiting2+0x70>
    90e0:	ebfffbe4 	bl	8078 <mmio_read>
    90e4:	e3a04001 	mov	r4, #1
    90e8:	e1a06000 	mov	r6, r0
    90ec:	e1a07004 	mov	r7, r4
    90f0:	e3a00000 	mov	r0, #0
    90f4:	ea000002 	b	9104 <irq_waiting2+0x30>
    90f8:	e2844001 	add	r4, r4, #1
    90fc:	e3540021 	cmp	r4, #33	; 0x21
    9100:	0a00000d 	beq	913c <irq_waiting2+0x68>
    9104:	e2441001 	sub	r1, r4, #1
    9108:	e1a01117 	lsl	r1, r7, r1
    910c:	e1110006 	tst	r1, r6
    9110:	0afffff8 	beq	90f8 <irq_waiting2+0x24>
    9114:	e7c84000 	strb	r4, [r8, r0]
    9118:	e2805001 	add	r5, r0, #1
    911c:	e1a03004 	mov	r3, r4
    9120:	e59f0020 	ldr	r0, [pc, #32]	; 9148 <irq_waiting2+0x74>
    9124:	e1a02006 	mov	r2, r6
    9128:	e2844001 	add	r4, r4, #1
    912c:	ebfffd6c 	bl	86e4 <printk>
    9130:	e3540021 	cmp	r4, #33	; 0x21
    9134:	e1a00005 	mov	r0, r5
    9138:	1afffff1 	bne	9104 <irq_waiting2+0x30>
    913c:	e8bd41f0 	pop	{r4, r5, r6, r7, r8, lr}
    9140:	e12fff1e 	bx	lr
    9144:	3f00b200 	svccc	0x0000b200
    9148:	0000a068 	andeq	sl, r0, r8, rrx

0000914c <irq_waiting>:
    914c:	e92d4070 	push	{r4, r5, r6, lr}
    9150:	e1a05000 	mov	r5, r0
    9154:	e59f00b4 	ldr	r0, [pc, #180]	; 9210 <irq_waiting+0xc4>
    9158:	ebfffbc6 	bl	8078 <mmio_read>
    915c:	e21040ff 	ands	r4, r0, #255	; 0xff
    9160:	e1a06000 	mov	r6, r0
    9164:	0a000008 	beq	918c <irq_waiting+0x40>
    9168:	e3a03000 	mov	r3, #0
    916c:	e3a02001 	mov	r2, #1
    9170:	e1a04003 	mov	r4, r3
    9174:	e0161312 	ands	r1, r6, r2, lsl r3
    9178:	e2833001 	add	r3, r3, #1
    917c:	17c53004 	strbne	r3, [r5, r4]
    9180:	12844001 	addne	r4, r4, #1
    9184:	e3530008 	cmp	r3, #8
    9188:	1afffff9 	bne	9174 <irq_waiting+0x28>
    918c:	e3160c7d 	tst	r6, #32000	; 0x7d00
    9190:	1a000012 	bne	91e0 <irq_waiting+0x94>
    9194:	e316093e 	tst	r6, #1015808	; 0xf8000
    9198:	1a000002 	bne	91a8 <irq_waiting+0x5c>
    919c:	e1a00004 	mov	r0, r4
    91a0:	e8bd4070 	pop	{r4, r5, r6, lr}
    91a4:	e12fff1e 	bx	lr
    91a8:	e59f0064 	ldr	r0, [pc, #100]	; 9214 <irq_waiting+0xc8>
    91ac:	ebfffbb1 	bl	8078 <mmio_read>
    91b0:	e3a03000 	mov	r3, #0
    91b4:	e3a02001 	mov	r2, #1
    91b8:	e0101312 	ands	r1, r0, r2, lsl r3
    91bc:	12831041 	addne	r1, r3, #65	; 0x41
    91c0:	e2833001 	add	r3, r3, #1
    91c4:	17c51004 	strbne	r1, [r5, r4]
    91c8:	12844001 	addne	r4, r4, #1
    91cc:	e3530020 	cmp	r3, #32
    91d0:	1afffff8 	bne	91b8 <irq_waiting+0x6c>
    91d4:	e1a00004 	mov	r0, r4
    91d8:	e8bd4070 	pop	{r4, r5, r6, lr}
    91dc:	e12fff1e 	bx	lr
    91e0:	e59f0030 	ldr	r0, [pc, #48]	; 9218 <irq_waiting+0xcc>
    91e4:	ebfffba3 	bl	8078 <mmio_read>
    91e8:	e3a03000 	mov	r3, #0
    91ec:	e3a02001 	mov	r2, #1
    91f0:	e0101312 	ands	r1, r0, r2, lsl r3
    91f4:	12831021 	addne	r1, r3, #33	; 0x21
    91f8:	e2833001 	add	r3, r3, #1
    91fc:	17c51004 	strbne	r1, [r5, r4]
    9200:	12844001 	addne	r4, r4, #1
    9204:	e3530020 	cmp	r3, #32
    9208:	1afffff8 	bne	91f0 <irq_waiting+0xa4>
    920c:	eaffffe0 	b	9194 <irq_waiting+0x48>
    9210:	3f00b200 	svccc	0x0000b200
    9214:	3f00b208 	svccc	0x0000b208
    9218:	3f00b204 	svccc	0x0000b204

0000921c <irq_debug>:
    921c:	e92d4010 	push	{r4, lr}
    9220:	e59f00d0 	ldr	r0, [pc, #208]	; 92f8 <irq_debug+0xdc>
    9224:	ebfffd2e 	bl	86e4 <printk>
    9228:	e59f00cc 	ldr	r0, [pc, #204]	; 92fc <irq_debug+0xe0>
    922c:	ebfffb91 	bl	8078 <mmio_read>
    9230:	e1a01000 	mov	r1, r0
    9234:	e59f00c4 	ldr	r0, [pc, #196]	; 9300 <irq_debug+0xe4>
    9238:	ebfffd29 	bl	86e4 <printk>
    923c:	e59f00c0 	ldr	r0, [pc, #192]	; 9304 <irq_debug+0xe8>
    9240:	ebfffb8c 	bl	8078 <mmio_read>
    9244:	e1a01000 	mov	r1, r0
    9248:	e59f00b8 	ldr	r0, [pc, #184]	; 9308 <irq_debug+0xec>
    924c:	ebfffd24 	bl	86e4 <printk>
    9250:	e59f00b4 	ldr	r0, [pc, #180]	; 930c <irq_debug+0xf0>
    9254:	ebfffb87 	bl	8078 <mmio_read>
    9258:	e59f40b0 	ldr	r4, [pc, #176]	; 9310 <irq_debug+0xf4>
    925c:	e1a01000 	mov	r1, r0
    9260:	e59f00ac 	ldr	r0, [pc, #172]	; 9314 <irq_debug+0xf8>
    9264:	ebfffd1e 	bl	86e4 <printk>
    9268:	e1a00004 	mov	r0, r4
    926c:	ebfffd1c 	bl	86e4 <printk>
    9270:	e59f00a0 	ldr	r0, [pc, #160]	; 9318 <irq_debug+0xfc>
    9274:	ebfffb7f 	bl	8078 <mmio_read>
    9278:	e1a01000 	mov	r1, r0
    927c:	e59f0098 	ldr	r0, [pc, #152]	; 931c <irq_debug+0x100>
    9280:	ebfffd17 	bl	86e4 <printk>
    9284:	e59f0094 	ldr	r0, [pc, #148]	; 9320 <irq_debug+0x104>
    9288:	ebfffb7a 	bl	8078 <mmio_read>
    928c:	e1a01000 	mov	r1, r0
    9290:	e59f008c 	ldr	r0, [pc, #140]	; 9324 <irq_debug+0x108>
    9294:	ebfffd12 	bl	86e4 <printk>
    9298:	e59f0088 	ldr	r0, [pc, #136]	; 9328 <irq_debug+0x10c>
    929c:	ebfffb75 	bl	8078 <mmio_read>
    92a0:	e1a01000 	mov	r1, r0
    92a4:	e59f0080 	ldr	r0, [pc, #128]	; 932c <irq_debug+0x110>
    92a8:	ebfffd0d 	bl	86e4 <printk>
    92ac:	e1a00004 	mov	r0, r4
    92b0:	ebfffd0b 	bl	86e4 <printk>
    92b4:	e59f0074 	ldr	r0, [pc, #116]	; 9330 <irq_debug+0x114>
    92b8:	ebfffb6e 	bl	8078 <mmio_read>
    92bc:	e1a01000 	mov	r1, r0
    92c0:	e59f006c 	ldr	r0, [pc, #108]	; 9334 <irq_debug+0x118>
    92c4:	ebfffd06 	bl	86e4 <printk>
    92c8:	e59f0068 	ldr	r0, [pc, #104]	; 9338 <irq_debug+0x11c>
    92cc:	ebfffb69 	bl	8078 <mmio_read>
    92d0:	e1a01000 	mov	r1, r0
    92d4:	e59f0060 	ldr	r0, [pc, #96]	; 933c <irq_debug+0x120>
    92d8:	ebfffd01 	bl	86e4 <printk>
    92dc:	e59f005c 	ldr	r0, [pc, #92]	; 9340 <irq_debug+0x124>
    92e0:	ebfffb64 	bl	8078 <mmio_read>
    92e4:	e1a01000 	mov	r1, r0
    92e8:	e59f0054 	ldr	r0, [pc, #84]	; 9344 <irq_debug+0x128>
    92ec:	ebfffcfc 	bl	86e4 <printk>
    92f0:	e8bd4010 	pop	{r4, lr}
    92f4:	e12fff1e 	bx	lr
    92f8:	0000a08c 	andeq	sl, r0, ip, lsl #1
    92fc:	3f00b200 	svccc	0x0000b200
    9300:	0000a0a8 	andeq	sl, r0, r8, lsr #1
    9304:	3f00b204 	svccc	0x0000b204
    9308:	0000a0bc 	strheq	sl, [r0], -ip
    930c:	3f00b208 	svccc	0x0000b208
    9310:	0000a0e4 	andeq	sl, r0, r4, ror #1
    9314:	0000a0d0 	ldrdeq	sl, [r0], -r0
    9318:	3f00b218 	svccc	0x0000b218
    931c:	0000a0ec 	andeq	sl, r0, ip, ror #1
    9320:	3f00b210 	svccc	0x0000b210
    9324:	0000a104 	andeq	sl, r0, r4, lsl #2
    9328:	3f00b214 	svccc	0x0000b214
    932c:	0000a118 	andeq	sl, r0, r8, lsl r1
    9330:	3f00b224 	svccc	0x0000b224
    9334:	0000a130 	andeq	sl, r0, r0, lsr r1
    9338:	3f00b21c 	svccc	0x0000b21c
    933c:	0000a148 	andeq	sl, r0, r8, asr #2
    9340:	3f00b220 	svccc	0x0000b220
    9344:	0000a160 	andeq	sl, r0, r0, ror #2

00009348 <task_stack_init>:
    9348:	e92d4038 	push	{r3, r4, r5, lr}
    934c:	e3a02b01 	mov	r2, #1024	; 0x400
    9350:	e1a05001 	mov	r5, r1
    9354:	e3a01000 	mov	r1, #0
    9358:	e1a04000 	mov	r4, r0
    935c:	ebfffde9 	bl	8b08 <_k_memset>
    9360:	e3a03010 	mov	r3, #16
    9364:	e2840d3f 	add	r0, r4, #4032	; 0xfc0
    9368:	e5845fc4 	str	r5, [r4, #4036]	; 0xfc4
    936c:	e5843fc0 	str	r3, [r4, #4032]	; 0xfc0
    9370:	e8bd4038 	pop	{r3, r4, r5, lr}
    9374:	e12fff1e 	bx	lr

00009378 <task_stack_copy>:
    9378:	e92d4010 	push	{r4, lr}
    937c:	e1a04102 	lsl	r4, r2, #2
    9380:	e2644a01 	rsb	r4, r4, #4096	; 0x1000
    9384:	e0814004 	add	r4, r1, r4
    9388:	e1a02102 	lsl	r2, r2, #2
    938c:	e1a01000 	mov	r1, r0
    9390:	e1a00004 	mov	r0, r4
    9394:	ebfffdd2 	bl	8ae4 <_k_memcpy>
    9398:	e1a00004 	mov	r0, r4
    939c:	e8bd4010 	pop	{r4, lr}
    93a0:	e12fff1e 	bx	lr

000093a4 <task_nextfree>:
    93a4:	e3510000 	cmp	r1, #0
    93a8:	da00000a 	ble	93d8 <task_nextfree+0x34>
    93ac:	e1a02000 	mov	r2, r0
    93b0:	e3a03000 	mov	r3, #0
    93b4:	e3e00000 	mvn	r0, #0
    93b8:	e592c00c 	ldr	ip, [r2, #12]
    93bc:	e35c0002 	cmp	ip, #2
    93c0:	01a00003 	moveq	r0, r3
    93c4:	e2833001 	add	r3, r3, #1
    93c8:	e1530001 	cmp	r3, r1
    93cc:	e282201c 	add	r2, r2, #28
    93d0:	1afffff8 	bne	93b8 <task_nextfree+0x14>
    93d4:	e12fff1e 	bx	lr
    93d8:	e3e00000 	mvn	r0, #0
    93dc:	e12fff1e 	bx	lr

000093e0 <timer_init>:
    93e0:	e92d4008 	push	{r3, lr}
    93e4:	e59f0018 	ldr	r0, [pc, #24]	; 9404 <timer_init+0x24>
    93e8:	e3a01c01 	mov	r1, #256	; 0x100
    93ec:	ebfffb1f 	bl	8070 <mmio_write>
    93f0:	e59f0010 	ldr	r0, [pc, #16]	; 9408 <timer_init+0x28>
    93f4:	e3a010aa 	mov	r1, #170	; 0xaa
    93f8:	ebfffb1c 	bl	8070 <mmio_write>
    93fc:	e8bd4008 	pop	{r3, lr}
    9400:	e12fff1e 	bx	lr
    9404:	3f00b400 	svccc	0x0000b400
    9408:	3f00b408 	svccc	0x0000b408

0000940c <timer_irq_ack>:
    940c:	e92d4008 	push	{r3, lr}
    9410:	e59f000c 	ldr	r0, [pc, #12]	; 9424 <timer_irq_ack+0x18>
    9414:	e3a01000 	mov	r1, #0
    9418:	ebfffb14 	bl	8070 <mmio_write>
    941c:	e8bd4008 	pop	{r3, lr}
    9420:	e12fff1e 	bx	lr
    9424:	3f00b40c 	svccc	0x0000b40c

00009428 <spi_close>:
    9428:	e3a02000 	mov	r2, #0
    942c:	e59f3008 	ldr	r3, [pc, #8]	; 943c <spi_close+0x14>
    9430:	e3a00001 	mov	r0, #1
    9434:	e5832000 	str	r2, [r3]
    9438:	e12fff1e 	bx	lr
    943c:	0000a76c 	andeq	sl, r0, ip, ror #14

00009440 <spi_writechar>:
    9440:	e92d4010 	push	{r4, lr}
    9444:	e3a010b0 	mov	r1, #176	; 0xb0
    9448:	e1a04000 	mov	r4, r0
    944c:	e59f0044 	ldr	r0, [pc, #68]	; 9498 <spi_writechar+0x58>
    9450:	ebfffb06 	bl	8070 <mmio_write>
    9454:	e59f003c 	ldr	r0, [pc, #60]	; 9498 <spi_writechar+0x58>
    9458:	ebfffb06 	bl	8078 <mmio_read>
    945c:	e3100701 	tst	r0, #262144	; 0x40000
    9460:	0afffffb 	beq	9454 <spi_writechar+0x14>
    9464:	e1a01004 	mov	r1, r4
    9468:	e59f002c 	ldr	r0, [pc, #44]	; 949c <spi_writechar+0x5c>
    946c:	ebfffaff 	bl	8070 <mmio_write>
    9470:	e59f0020 	ldr	r0, [pc, #32]	; 9498 <spi_writechar+0x58>
    9474:	ebfffaff 	bl	8078 <mmio_read>
    9478:	e3100801 	tst	r0, #65536	; 0x10000
    947c:	0afffffb 	beq	9470 <spi_writechar+0x30>
    9480:	e59f0010 	ldr	r0, [pc, #16]	; 9498 <spi_writechar+0x58>
    9484:	e3a01000 	mov	r1, #0
    9488:	ebfffaf8 	bl	8070 <mmio_write>
    948c:	e3a00001 	mov	r0, #1
    9490:	e8bd4010 	pop	{r4, lr}
    9494:	e12fff1e 	bx	lr
    9498:	3f204000 	svccc	0x00204000
    949c:	3f204004 	svccc	0x00204004

000094a0 <spi_write>:
    94a0:	e3510000 	cmp	r1, #0
    94a4:	0a00000b 	beq	94d8 <spi_write+0x38>
    94a8:	e92d4070 	push	{r4, r5, r6, lr}
    94ac:	e1a06000 	mov	r6, r0
    94b0:	e1a05001 	mov	r5, r1
    94b4:	e3a04000 	mov	r4, #0
    94b8:	e7d60004 	ldrb	r0, [r6, r4]
    94bc:	ebffffdf 	bl	9440 <spi_writechar>
    94c0:	e0844000 	add	r4, r4, r0
    94c4:	e1550004 	cmp	r5, r4
    94c8:	8afffffa 	bhi	94b8 <spi_write+0x18>
    94cc:	e1a00004 	mov	r0, r4
    94d0:	e8bd4070 	pop	{r4, r5, r6, lr}
    94d4:	e12fff1e 	bx	lr
    94d8:	e1a00001 	mov	r0, r1
    94dc:	e12fff1e 	bx	lr

000094e0 <spi_open>:
    94e0:	e92d4010 	push	{r4, lr}
    94e4:	e59f4090 	ldr	r4, [pc, #144]	; 957c <spi_open+0x9c>
    94e8:	e5943000 	ldr	r3, [r4]
    94ec:	e3530000 	cmp	r3, #0
    94f0:	1a00001e 	bne	9570 <spi_open+0x90>
    94f4:	e59f0084 	ldr	r0, [pc, #132]	; 9580 <spi_open+0xa0>
    94f8:	ebfffade 	bl	8078 <mmio_read>
    94fc:	e3801002 	orr	r1, r0, #2
    9500:	e59f0078 	ldr	r0, [pc, #120]	; 9580 <spi_open+0xa0>
    9504:	ebfffad9 	bl	8070 <mmio_write>
    9508:	e3a00009 	mov	r0, #9
    950c:	e3a01004 	mov	r1, #4
    9510:	ebfffdd5 	bl	8c6c <gpio_enable_pin>
    9514:	e3a00008 	mov	r0, #8
    9518:	e3a01004 	mov	r1, #4
    951c:	ebfffdd2 	bl	8c6c <gpio_enable_pin>
    9520:	e3a00007 	mov	r0, #7
    9524:	e3a01004 	mov	r1, #4
    9528:	ebfffdcf 	bl	8c6c <gpio_enable_pin>
    952c:	e3a0000a 	mov	r0, #10
    9530:	e3a01004 	mov	r1, #4
    9534:	ebfffdcc 	bl	8c6c <gpio_enable_pin>
    9538:	e3a0000b 	mov	r0, #11
    953c:	e3a01004 	mov	r1, #4
    9540:	ebfffdc9 	bl	8c6c <gpio_enable_pin>
    9544:	e3a00019 	mov	r0, #25
    9548:	e3a01001 	mov	r1, #1
    954c:	ebfffdc6 	bl	8c6c <gpio_enable_pin>
    9550:	e59f002c 	ldr	r0, [pc, #44]	; 9584 <spi_open+0xa4>
    9554:	e3a01030 	mov	r1, #48	; 0x30
    9558:	ebfffac4 	bl	8070 <mmio_write>
    955c:	e59f0024 	ldr	r0, [pc, #36]	; 9588 <spi_open+0xa8>
    9560:	e3a01020 	mov	r1, #32
    9564:	ebfffac1 	bl	8070 <mmio_write>
    9568:	e3a03001 	mov	r3, #1
    956c:	e5843000 	str	r3, [r4]
    9570:	e3a00001 	mov	r0, #1
    9574:	e8bd4010 	pop	{r4, lr}
    9578:	e12fff1e 	bx	lr
    957c:	0000a76c 	andeq	sl, r0, ip, ror #14
    9580:	3f215004 	svccc	0x00215004
    9584:	3f204000 	svccc	0x00204000
    9588:	3f204008 	svccc	0x00204008

0000958c <spi_init_driver>:
    958c:	e3a02000 	mov	r2, #0
    9590:	e92d4008 	push	{r3, lr}
    9594:	e59f3014 	ldr	r3, [pc, #20]	; 95b0 <spi_init_driver+0x24>
    9598:	e59f0014 	ldr	r0, [pc, #20]	; 95b4 <spi_init_driver+0x28>
    959c:	e59f1014 	ldr	r1, [pc, #20]	; 95b8 <spi_init_driver+0x2c>
    95a0:	e5832000 	str	r2, [r3]
    95a4:	ebfffdea 	bl	8d54 <drivers_register_serial>
    95a8:	e8bd4008 	pop	{r3, lr}
    95ac:	e12fff1e 	bx	lr
    95b0:	0000a76c 	andeq	sl, r0, ip, ror #14
    95b4:	0000a250 	andeq	sl, r0, r0, asr r2
    95b8:	0000a178 	andeq	sl, r0, r8, ror r1

000095bc <uart_peek>:
    95bc:	e92d4008 	push	{r3, lr}
    95c0:	e59f0008 	ldr	r0, [pc, #8]	; 95d0 <uart_peek+0x14>
    95c4:	ebfffda1 	bl	8c50 <rb_len>
    95c8:	e8bd4008 	pop	{r3, lr}
    95cc:	e12fff1e 	bx	lr
    95d0:	0000a774 	andeq	sl, r0, r4, ror r7

000095d4 <uart_read>:
    95d4:	e92d4070 	push	{r4, r5, r6, lr}
    95d8:	e1a06000 	mov	r6, r0
    95dc:	e1a05001 	mov	r5, r1
    95e0:	e3a04000 	mov	r4, #0
    95e4:	e1540005 	cmp	r4, r5
    95e8:	1a000002 	bne	95f8 <uart_read+0x24>
    95ec:	ea00000b 	b	9620 <uart_read+0x4c>
    95f0:	e1550004 	cmp	r5, r4
    95f4:	9a000009 	bls	9620 <uart_read+0x4c>
    95f8:	e59f002c 	ldr	r0, [pc, #44]	; 962c <uart_read+0x58>
    95fc:	ebfffd93 	bl	8c50 <rb_len>
    9600:	e3500000 	cmp	r0, #0
    9604:	0afffff9 	beq	95f0 <uart_read+0x1c>
    9608:	e2843001 	add	r3, r4, #1
    960c:	e0861004 	add	r1, r6, r4
    9610:	e59f0014 	ldr	r0, [pc, #20]	; 962c <uart_read+0x58>
    9614:	e1a04003 	mov	r4, r3
    9618:	ebfffd81 	bl	8c24 <rb_pop>
    961c:	eafffff0 	b	95e4 <uart_read+0x10>
    9620:	e1a00004 	mov	r0, r4
    9624:	e8bd4070 	pop	{r4, r5, r6, lr}
    9628:	e12fff1e 	bx	lr
    962c:	0000a774 	andeq	sl, r0, r4, ror r7

00009630 <uart_writechar>:
    9630:	e92d4010 	push	{r4, lr}
    9634:	e1a04000 	mov	r4, r0
    9638:	e59f0020 	ldr	r0, [pc, #32]	; 9660 <uart_writechar+0x30>
    963c:	ebfffa8d 	bl	8078 <mmio_read>
    9640:	e3100020 	tst	r0, #32
    9644:	1afffffb 	bne	9638 <uart_writechar+0x8>
    9648:	e1a01004 	mov	r1, r4
    964c:	e59f0010 	ldr	r0, [pc, #16]	; 9664 <uart_writechar+0x34>
    9650:	ebfffa86 	bl	8070 <mmio_write>
    9654:	e3a00001 	mov	r0, #1
    9658:	e8bd4010 	pop	{r4, lr}
    965c:	e12fff1e 	bx	lr
    9660:	3f201018 	svccc	0x00201018
    9664:	3f201000 	svccc	0x00201000

00009668 <uart_write>:
    9668:	e3510000 	cmp	r1, #0
    966c:	0a00000b 	beq	96a0 <uart_write+0x38>
    9670:	e92d4070 	push	{r4, r5, r6, lr}
    9674:	e1a06000 	mov	r6, r0
    9678:	e1a05001 	mov	r5, r1
    967c:	e3a04000 	mov	r4, #0
    9680:	e7d60004 	ldrb	r0, [r6, r4]
    9684:	ebffffe9 	bl	9630 <uart_writechar>
    9688:	e0844000 	add	r4, r4, r0
    968c:	e1550004 	cmp	r5, r4
    9690:	8afffffa 	bhi	9680 <uart_write+0x18>
    9694:	e1a00004 	mov	r0, r4
    9698:	e8bd4070 	pop	{r4, r5, r6, lr}
    969c:	e12fff1e 	bx	lr
    96a0:	e1a00001 	mov	r0, r1
    96a4:	e12fff1e 	bx	lr

000096a8 <uart_close>:
    96a8:	e92d4008 	push	{r3, lr}
    96ac:	e3a0005a 	mov	r0, #90	; 0x5a
    96b0:	ebfffe44 	bl	8fc8 <irq_handler_free>
    96b4:	e3a02000 	mov	r2, #0
    96b8:	e59f300c 	ldr	r3, [pc, #12]	; 96cc <uart_close+0x24>
    96bc:	e3a00001 	mov	r0, #1
    96c0:	e5832000 	str	r2, [r3]
    96c4:	e8bd4008 	pop	{r3, lr}
    96c8:	e12fff1e 	bx	lr
    96cc:	0000a770 	andeq	sl, r0, r0, ror r7

000096d0 <uart_open>:
    96d0:	e92d4038 	push	{r3, r4, r5, lr}
    96d4:	e59f5100 	ldr	r5, [pc, #256]	; 97dc <uart_open+0x10c>
    96d8:	e5954000 	ldr	r4, [r5]
    96dc:	e3540000 	cmp	r4, #0
    96e0:	0a000002 	beq	96f0 <uart_open+0x20>
    96e4:	e3a00001 	mov	r0, #1
    96e8:	e8bd4038 	pop	{r3, r4, r5, lr}
    96ec:	e12fff1e 	bx	lr
    96f0:	e59f00e8 	ldr	r0, [pc, #232]	; 97e0 <uart_open+0x110>
    96f4:	e1a01004 	mov	r1, r4
    96f8:	ebfffa5c 	bl	8070 <mmio_write>
    96fc:	e3a0000e 	mov	r0, #14
    9700:	e3a01004 	mov	r1, #4
    9704:	ebfffd58 	bl	8c6c <gpio_enable_pin>
    9708:	e3a0000f 	mov	r0, #15
    970c:	e3a01004 	mov	r1, #4
    9710:	ebfffd55 	bl	8c6c <gpio_enable_pin>
    9714:	e59f00c8 	ldr	r0, [pc, #200]	; 97e4 <uart_open+0x114>
    9718:	e1a01004 	mov	r1, r4
    971c:	ebfffa53 	bl	8070 <mmio_write>
    9720:	e1a00004 	mov	r0, r4
    9724:	e2844001 	add	r4, r4, #1
    9728:	ebfffa54 	bl	8080 <dummy>
    972c:	e3540096 	cmp	r4, #150	; 0x96
    9730:	1afffffa 	bne	9720 <uart_open+0x50>
    9734:	e59f00ac 	ldr	r0, [pc, #172]	; 97e8 <uart_open+0x118>
    9738:	e3a01903 	mov	r1, #49152	; 0xc000
    973c:	ebfffa4b 	bl	8070 <mmio_write>
    9740:	e3a04000 	mov	r4, #0
    9744:	e1a00004 	mov	r0, r4
    9748:	e2844001 	add	r4, r4, #1
    974c:	ebfffa4b 	bl	8080 <dummy>
    9750:	e3540096 	cmp	r4, #150	; 0x96
    9754:	1afffffa 	bne	9744 <uart_open+0x74>
    9758:	e59f0088 	ldr	r0, [pc, #136]	; 97e8 <uart_open+0x118>
    975c:	e3a01000 	mov	r1, #0
    9760:	ebfffa42 	bl	8070 <mmio_write>
    9764:	e59f0080 	ldr	r0, [pc, #128]	; 97ec <uart_open+0x11c>
    9768:	e59f1080 	ldr	r1, [pc, #128]	; 97f0 <uart_open+0x120>
    976c:	ebfffa3f 	bl	8070 <mmio_write>
    9770:	e59f007c 	ldr	r0, [pc, #124]	; 97f4 <uart_open+0x124>
    9774:	e3a01001 	mov	r1, #1
    9778:	ebfffa3c 	bl	8070 <mmio_write>
    977c:	e59f0074 	ldr	r0, [pc, #116]	; 97f8 <uart_open+0x128>
    9780:	e3a01028 	mov	r1, #40	; 0x28
    9784:	ebfffa39 	bl	8070 <mmio_write>
    9788:	e59f006c 	ldr	r0, [pc, #108]	; 97fc <uart_open+0x12c>
    978c:	e3a01070 	mov	r1, #112	; 0x70
    9790:	ebfffa36 	bl	8070 <mmio_write>
    9794:	e59f0064 	ldr	r0, [pc, #100]	; 9800 <uart_open+0x130>
    9798:	e3a01050 	mov	r1, #80	; 0x50
    979c:	ebfffa33 	bl	8070 <mmio_write>
    97a0:	e59f105c 	ldr	r1, [pc, #92]	; 9804 <uart_open+0x134>
    97a4:	e59f0034 	ldr	r0, [pc, #52]	; 97e0 <uart_open+0x110>
    97a8:	ebfffa30 	bl	8070 <mmio_write>
    97ac:	e3a0005a 	mov	r0, #90	; 0x5a
    97b0:	ebfffe04 	bl	8fc8 <irq_handler_free>
    97b4:	e59f104c 	ldr	r1, [pc, #76]	; 9808 <uart_open+0x138>
    97b8:	e3a0005a 	mov	r0, #90	; 0x5a
    97bc:	ebfffe16 	bl	901c <irq_handler_register>
    97c0:	e59f0044 	ldr	r0, [pc, #68]	; 980c <uart_open+0x13c>
    97c4:	ebfffd09 	bl	8bf0 <rb_init>
    97c8:	e3a03001 	mov	r3, #1
    97cc:	e3a00001 	mov	r0, #1
    97d0:	e5853000 	str	r3, [r5]
    97d4:	e8bd4038 	pop	{r3, r4, r5, lr}
    97d8:	e12fff1e 	bx	lr
    97dc:	0000a770 	andeq	sl, r0, r0, ror r7
    97e0:	3f201030 	svccc	0x00201030
    97e4:	3f200094 	svccc	0x00200094
    97e8:	3f200098 	svccc	0x00200098
    97ec:	3f201044 	svccc	0x00201044
    97f0:	000007ff 	strdeq	r0, [r0], -pc	; <UNPREDICTABLE>
    97f4:	3f201024 	svccc	0x00201024
    97f8:	3f201028 	svccc	0x00201028
    97fc:	3f20102c 	svccc	0x0020102c
    9800:	3f201038 	svccc	0x00201038
    9804:	00000301 	andeq	r0, r0, r1, lsl #6
    9808:	00009810 	andeq	r9, r0, r0, lsl r8
    980c:	0000a774 	andeq	sl, r0, r4, ror r7

00009810 <uart_irq_handler>:
    9810:	e59f305c 	ldr	r3, [pc, #92]	; 9874 <uart_irq_handler+0x64>
    9814:	e5930000 	ldr	r0, [r3]
    9818:	e3500000 	cmp	r0, #0
    981c:	012fff1e 	bxeq	lr
    9820:	e92d4010 	push	{r4, lr}
    9824:	e59f004c 	ldr	r0, [pc, #76]	; 9878 <uart_irq_handler+0x68>
    9828:	ebfffa12 	bl	8078 <mmio_read>
    982c:	e3100050 	tst	r0, #80	; 0x50
    9830:	e1a04000 	mov	r4, r0
    9834:	0a000008 	beq	985c <uart_irq_handler+0x4c>
    9838:	e59f003c 	ldr	r0, [pc, #60]	; 987c <uart_irq_handler+0x6c>
    983c:	ebfffa0d 	bl	8078 <mmio_read>
    9840:	e20010ff 	and	r1, r0, #255	; 0xff
    9844:	e59f0034 	ldr	r0, [pc, #52]	; 9880 <uart_irq_handler+0x70>
    9848:	ebfffcec 	bl	8c00 <rb_push>
    984c:	e59f0030 	ldr	r0, [pc, #48]	; 9884 <uart_irq_handler+0x74>
    9850:	ebfffa08 	bl	8078 <mmio_read>
    9854:	e3100010 	tst	r0, #16
    9858:	0afffff6 	beq	9838 <uart_irq_handler+0x28>
    985c:	e1a01004 	mov	r1, r4
    9860:	e59f0020 	ldr	r0, [pc, #32]	; 9888 <uart_irq_handler+0x78>
    9864:	ebfffa01 	bl	8070 <mmio_write>
    9868:	e3a00001 	mov	r0, #1
    986c:	e8bd4010 	pop	{r4, lr}
    9870:	e12fff1e 	bx	lr
    9874:	0000a770 	andeq	sl, r0, r0, ror r7
    9878:	3f201040 	svccc	0x00201040
    987c:	3f201000 	svccc	0x00201000
    9880:	0000a774 	andeq	sl, r0, r4, ror r7
    9884:	3f201018 	svccc	0x00201018
    9888:	3f201044 	svccc	0x00201044

0000988c <uart_init_driver>:
    988c:	e3a02000 	mov	r2, #0
    9890:	e92d4008 	push	{r3, lr}
    9894:	e59f3014 	ldr	r3, [pc, #20]	; 98b0 <uart_init_driver+0x24>
    9898:	e59f0014 	ldr	r0, [pc, #20]	; 98b4 <uart_init_driver+0x28>
    989c:	e59f1014 	ldr	r1, [pc, #20]	; 98b8 <uart_init_driver+0x2c>
    98a0:	e5832000 	str	r2, [r3]
    98a4:	ebfffd2a 	bl	8d54 <drivers_register_serial>
    98a8:	e8bd4008 	pop	{r3, lr}
    98ac:	e12fff1e 	bx	lr
    98b0:	0000a770 	andeq	sl, r0, r0, ror r7
    98b4:	0000a268 	andeq	sl, r0, r8, ror #4
    98b8:	0000a038 	andeq	sl, r0, r8, lsr r0

000098bc <app_init>:
    98bc:	e52de004 	push	{lr}		; (str lr, [sp, #-4]!)
    98c0:	e59f003c 	ldr	r0, [pc, #60]	; 9904 <app_init+0x48>
    98c4:	e24dd00c 	sub	sp, sp, #12
    98c8:	ebfffa12 	bl	8118 <open>
    98cc:	e3500000 	cmp	r0, #0
    98d0:	e58d0004 	str	r0, [sp, #4]
    98d4:	1a000001 	bne	98e0 <app_init+0x24>
    98d8:	ebfff9f6 	bl	80b8 <yield>
    98dc:	eafffffd 	b	98d8 <app_init+0x1c>
    98e0:	e59f3020 	ldr	r3, [pc, #32]	; 9908 <app_init+0x4c>
    98e4:	e28d2004 	add	r2, sp, #4
    98e8:	e5832000 	str	r2, [r3]
    98ec:	e5832004 	str	r2, [r3, #4]
    98f0:	ebfff9f4 	bl	80c8 <fork>
    98f4:	e3500000 	cmp	r0, #0
    98f8:	1afffff6 	bne	98d8 <app_init+0x1c>
    98fc:	eb000050 	bl	9a44 <terminal_main>
    9900:	eafffff4 	b	98d8 <app_init+0x1c>
    9904:	0000a038 	andeq	sl, r0, r8, lsr r0
    9908:	0000a304 	andeq	sl, r0, r4, lsl #6

0000990c <lcd_main>:
    990c:	e92d4010 	push	{r4, lr}
    9910:	e59f003c 	ldr	r0, [pc, #60]	; 9954 <lcd_main+0x48>
    9914:	ebfff9ff 	bl	8118 <open>
    9918:	e2504000 	subs	r4, r0, #0
    991c:	e59f3034 	ldr	r3, [pc, #52]	; 9958 <lcd_main+0x4c>
    9920:	0a000004 	beq	9938 <lcd_main+0x2c>
    9924:	e1a02004 	mov	r2, r4
    9928:	e5930000 	ldr	r0, [r3]
    992c:	e59f1028 	ldr	r1, [pc, #40]	; 995c <lcd_main+0x50>
    9930:	eb0000a9 	bl	9bdc <fprintf>
    9934:	eafffffe 	b	9934 <lcd_main+0x28>
    9938:	e59f1020 	ldr	r1, [pc, #32]	; 9960 <lcd_main+0x54>
    993c:	e5930000 	ldr	r0, [r3]
    9940:	eb0000a5 	bl	9bdc <fprintf>
    9944:	e1a00004 	mov	r0, r4
    9948:	ebfff9e2 	bl	80d8 <exit>
    994c:	e8bd4010 	pop	{r4, lr}
    9950:	e12fff1e 	bx	lr
    9954:	0000a180 	andeq	sl, r0, r0, lsl #3
    9958:	0000a304 	andeq	sl, r0, r4, lsl #6
    995c:	0000a188 	andeq	sl, r0, r8, lsl #3
    9960:	0000a19c 	muleq	r0, ip, r1

00009964 <memory_main>:
    9964:	e12fff1e 	bx	lr

00009968 <terminal_handle_command>:
    9968:	e92d4010 	push	{r4, lr}
    996c:	e59f10b0 	ldr	r1, [pc, #176]	; 9a24 <terminal_handle_command+0xbc>
    9970:	e1a04000 	mov	r4, r0
    9974:	eb000146 	bl	9e94 <strcmp>
    9978:	e3500000 	cmp	r0, #0
    997c:	1a000004 	bne	9994 <terminal_handle_command+0x2c>
    9980:	ebfff9d0 	bl	80c8 <fork>
    9984:	e3500000 	cmp	r0, #0
    9988:	0a000019 	beq	99f4 <terminal_handle_command+0x8c>
    998c:	e8bd4010 	pop	{r4, lr}
    9990:	e12fff1e 	bx	lr
    9994:	e1a00004 	mov	r0, r4
    9998:	e59f1088 	ldr	r1, [pc, #136]	; 9a28 <terminal_handle_command+0xc0>
    999c:	eb00013c 	bl	9e94 <strcmp>
    99a0:	e3500000 	cmp	r0, #0
    99a4:	0a00000f 	beq	99e8 <terminal_handle_command+0x80>
    99a8:	e1a00004 	mov	r0, r4
    99ac:	e59f1078 	ldr	r1, [pc, #120]	; 9a2c <terminal_handle_command+0xc4>
    99b0:	eb000137 	bl	9e94 <strcmp>
    99b4:	e3500000 	cmp	r0, #0
    99b8:	0a000010 	beq	9a00 <terminal_handle_command+0x98>
    99bc:	e59f106c 	ldr	r1, [pc, #108]	; 9a30 <terminal_handle_command+0xc8>
    99c0:	e1a00004 	mov	r0, r4
    99c4:	eb000132 	bl	9e94 <strcmp>
    99c8:	e59f3064 	ldr	r3, [pc, #100]	; 9a34 <terminal_handle_command+0xcc>
    99cc:	e3500000 	cmp	r0, #0
    99d0:	059f1060 	ldreq	r1, [pc, #96]	; 9a38 <terminal_handle_command+0xd0>
    99d4:	159f1060 	ldrne	r1, [pc, #96]	; 9a3c <terminal_handle_command+0xd4>
    99d8:	e5930000 	ldr	r0, [r3]
    99dc:	eb00007e 	bl	9bdc <fprintf>
    99e0:	e8bd4010 	pop	{r4, lr}
    99e4:	e12fff1e 	bx	lr
    99e8:	ebffffdd 	bl	9964 <memory_main>
    99ec:	e8bd4010 	pop	{r4, lr}
    99f0:	e12fff1e 	bx	lr
    99f4:	ebffffc4 	bl	990c <lcd_main>
    99f8:	e8bd4010 	pop	{r4, lr}
    99fc:	e12fff1e 	bx	lr
    9a00:	e59f302c 	ldr	r3, [pc, #44]	; 9a34 <terminal_handle_command+0xcc>
    9a04:	e5934000 	ldr	r4, [r3]
    9a08:	ebfff9b6 	bl	80e8 <getpid>
    9a0c:	e59f102c 	ldr	r1, [pc, #44]	; 9a40 <terminal_handle_command+0xd8>
    9a10:	e1a02000 	mov	r2, r0
    9a14:	e1a00004 	mov	r0, r4
    9a18:	eb00006f 	bl	9bdc <fprintf>
    9a1c:	e8bd4010 	pop	{r4, lr}
    9a20:	e12fff1e 	bx	lr
    9a24:	0000a244 	andeq	sl, r0, r4, asr #4
    9a28:	0000a1b4 			; <UNDEFINED> instruction: 0x0000a1b4
    9a2c:	0000a1bc 			; <UNDEFINED> instruction: 0x0000a1bc
    9a30:	0000a1d8 	ldrdeq	sl, [r0], -r8
    9a34:	0000a304 	andeq	sl, r0, r4, lsl #6
    9a38:	0000a1e0 	andeq	sl, r0, r0, ror #3
    9a3c:	0000a1fc 	strdeq	sl, [r0], -ip
    9a40:	0000a1c4 	andeq	sl, r0, r4, asr #3

00009a44 <terminal_main>:
    9a44:	e92d43f0 	push	{r4, r5, r6, r7, r8, r9, lr}
    9a48:	e3a05000 	mov	r5, #0
    9a4c:	e59f80e8 	ldr	r8, [pc, #232]	; 9b3c <terminal_main+0xf8>
    9a50:	e24ddf41 	sub	sp, sp, #260	; 0x104
    9a54:	e59f10e4 	ldr	r1, [pc, #228]	; 9b40 <terminal_main+0xfc>
    9a58:	e5980000 	ldr	r0, [r8]
    9a5c:	eb00005e 	bl	9bdc <fprintf>
    9a60:	e59f10dc 	ldr	r1, [pc, #220]	; 9b44 <terminal_main+0x100>
    9a64:	e5980000 	ldr	r0, [r8]
    9a68:	eb00005b 	bl	9bdc <fprintf>
    9a6c:	e5980000 	ldr	r0, [r8]
    9a70:	e59f10d0 	ldr	r1, [pc, #208]	; 9b48 <terminal_main+0x104>
    9a74:	eb000058 	bl	9bdc <fprintf>
    9a78:	e1a09005 	mov	r9, r5
    9a7c:	e59f40c8 	ldr	r4, [pc, #200]	; 9b4c <terminal_main+0x108>
    9a80:	e28d7c01 	add	r7, sp, #256	; 0x100
    9a84:	e5943000 	ldr	r3, [r4]
    9a88:	e5930000 	ldr	r0, [r3]
    9a8c:	ebfff9a9 	bl	8138 <peek>
    9a90:	e3500000 	cmp	r0, #0
    9a94:	e59f30b0 	ldr	r3, [pc, #176]	; 9b4c <terminal_main+0x108>
    9a98:	dafffff9 	ble	9a84 <terminal_main+0x40>
    9a9c:	e5933000 	ldr	r3, [r3]
    9aa0:	e08d1005 	add	r1, sp, r5
    9aa4:	e5930000 	ldr	r0, [r3]
    9aa8:	e3a02001 	mov	r2, #1
    9aac:	ebfff995 	bl	8108 <read>
    9ab0:	e5576100 	ldrb	r6, [r7, #-256]	; 0x100
    9ab4:	e356000a 	cmp	r6, #10
    9ab8:	0a00000f 	beq	9afc <terminal_main+0xb8>
    9abc:	e356007f 	cmp	r6, #127	; 0x7f
    9ac0:	1a000016 	bne	9b20 <terminal_main+0xdc>
    9ac4:	e3550000 	cmp	r5, #0
    9ac8:	e2453001 	sub	r3, r5, #1
    9acc:	0affffec 	beq	9a84 <terminal_main+0x40>
    9ad0:	e1a05003 	mov	r5, r3
    9ad4:	e5981000 	ldr	r1, [r8]
    9ad8:	e3a00008 	mov	r0, #8
    9adc:	e5479100 	strb	r9, [r7, #-256]	; 0x100
    9ae0:	eb00001b 	bl	9b54 <fputc>
    9ae4:	e1a00006 	mov	r0, r6
    9ae8:	e5981000 	ldr	r1, [r8]
    9aec:	eb000018 	bl	9b54 <fputc>
    9af0:	e28d3c01 	add	r3, sp, #256	; 0x100
    9af4:	e0837005 	add	r7, r3, r5
    9af8:	eaffffe1 	b	9a84 <terminal_main+0x40>
    9afc:	e1a0000d 	mov	r0, sp
    9b00:	e5479100 	strb	r9, [r7, #-256]	; 0x100
    9b04:	ebffff97 	bl	9968 <terminal_handle_command>
    9b08:	e5980000 	ldr	r0, [r8]
    9b0c:	e59f103c 	ldr	r1, [pc, #60]	; 9b50 <terminal_main+0x10c>
    9b10:	eb000031 	bl	9bdc <fprintf>
    9b14:	e3a05000 	mov	r5, #0
    9b18:	e28d7c01 	add	r7, sp, #256	; 0x100
    9b1c:	eaffffd8 	b	9a84 <terminal_main+0x40>
    9b20:	e1a00006 	mov	r0, r6
    9b24:	e5981000 	ldr	r1, [r8]
    9b28:	e2855001 	add	r5, r5, #1
    9b2c:	eb000008 	bl	9b54 <fputc>
    9b30:	e28d3c01 	add	r3, sp, #256	; 0x100
    9b34:	e0837005 	add	r7, r3, r5
    9b38:	eaffffd1 	b	9a84 <terminal_main+0x40>
    9b3c:	0000a304 	andeq	sl, r0, r4, lsl #6
    9b40:	0000a210 	andeq	sl, r0, r0, lsl r2
    9b44:	0000a22c 	andeq	sl, r0, ip, lsr #4
    9b48:	0000a23c 	andeq	sl, r0, ip, lsr r2
    9b4c:	0000a308 	andeq	sl, r0, r8, lsl #6
    9b50:	0000a240 	andeq	sl, r0, r0, asr #4

00009b54 <fputc>:
    9b54:	e52de004 	push	{lr}		; (str lr, [sp, #-4]!)
    9b58:	e24dd00c 	sub	sp, sp, #12
    9b5c:	e28d3008 	add	r3, sp, #8
    9b60:	e5230004 	str	r0, [r3, #-4]!
    9b64:	e3a02001 	mov	r2, #1
    9b68:	e5910000 	ldr	r0, [r1]
    9b6c:	e1a01003 	mov	r1, r3
    9b70:	ebfff960 	bl	80f8 <write>
    9b74:	e28dd00c 	add	sp, sp, #12
    9b78:	e49de004 	pop	{lr}		; (ldr lr, [sp], #4)
    9b7c:	e12fff1e 	bx	lr

00009b80 <fputs>:
    9b80:	e92d4070 	push	{r4, r5, r6, lr}
    9b84:	e5d03000 	ldrb	r3, [r0]
    9b88:	e3530000 	cmp	r3, #0
    9b8c:	e24dd008 	sub	sp, sp, #8
    9b90:	e1a05000 	mov	r5, r0
    9b94:	0a00000e 	beq	9bd4 <fputs+0x54>
    9b98:	e1a06001 	mov	r6, r1
    9b9c:	e3a04000 	mov	r4, #0
    9ba0:	e5960000 	ldr	r0, [r6]
    9ba4:	e28d1004 	add	r1, sp, #4
    9ba8:	e3a02001 	mov	r2, #1
    9bac:	e58d3004 	str	r3, [sp, #4]
    9bb0:	ebfff950 	bl	80f8 <write>
    9bb4:	e5f53001 	ldrb	r3, [r5, #1]!
    9bb8:	e3530000 	cmp	r3, #0
    9bbc:	e0844000 	add	r4, r4, r0
    9bc0:	1afffff6 	bne	9ba0 <fputs+0x20>
    9bc4:	e1a00004 	mov	r0, r4
    9bc8:	e28dd008 	add	sp, sp, #8
    9bcc:	e8bd4070 	pop	{r4, r5, r6, lr}
    9bd0:	e12fff1e 	bx	lr
    9bd4:	e1a00003 	mov	r0, r3
    9bd8:	eafffffa 	b	9bc8 <fputs+0x48>

00009bdc <fprintf>:
    9bdc:	e92d000e 	push	{r1, r2, r3}
    9be0:	e92d4ff0 	push	{r4, r5, r6, r7, r8, r9, sl, fp, lr}
    9be4:	e24dd028 	sub	sp, sp, #40	; 0x28
    9be8:	e59d404c 	ldr	r4, [sp, #76]	; 0x4c
    9bec:	e5d43000 	ldrb	r3, [r4]
    9bf0:	e3530000 	cmp	r3, #0
    9bf4:	0a000081 	beq	9e00 <fprintf+0x224>
    9bf8:	e1a05000 	mov	r5, r0
    9bfc:	e3a08030 	mov	r8, #48	; 0x30
    9c00:	e3a09078 	mov	r9, #120	; 0x78
    9c04:	e59f6244 	ldr	r6, [pc, #580]	; 9e50 <fprintf+0x274>
    9c08:	e28da04c 	add	sl, sp, #76	; 0x4c
    9c0c:	ea00000a 	b	9c3c <fprintf+0x60>
    9c10:	e28d1028 	add	r1, sp, #40	; 0x28
    9c14:	e5213028 	str	r3, [r1, #-40]!	; 0x28
    9c18:	e5950000 	ldr	r0, [r5]
    9c1c:	e3a02001 	mov	r2, #1
    9c20:	ebfff934 	bl	80f8 <write>
    9c24:	e59d404c 	ldr	r4, [sp, #76]	; 0x4c
    9c28:	e5d43001 	ldrb	r3, [r4, #1]
    9c2c:	e2844001 	add	r4, r4, #1
    9c30:	e3530000 	cmp	r3, #0
    9c34:	e58d404c 	str	r4, [sp, #76]	; 0x4c
    9c38:	0a000070 	beq	9e00 <fprintf+0x224>
    9c3c:	e3530025 	cmp	r3, #37	; 0x25
    9c40:	1afffff2 	bne	9c10 <fprintf+0x34>
    9c44:	e5d43001 	ldrb	r3, [r4, #1]
    9c48:	e2844001 	add	r4, r4, #1
    9c4c:	e2433058 	sub	r3, r3, #88	; 0x58
    9c50:	e58d404c 	str	r4, [sp, #76]	; 0x4c
    9c54:	e28a7004 	add	r7, sl, #4
    9c58:	e3530020 	cmp	r3, #32
    9c5c:	979ff103 	ldrls	pc, [pc, r3, lsl #2]
    9c60:	ea000049 	b	9d8c <fprintf+0x1b0>
    9c64:	00009d94 	muleq	r0, r4, sp
    9c68:	00009d8c 	andeq	r9, r0, ip, lsl #27
    9c6c:	00009d8c 	andeq	r9, r0, ip, lsl #27
    9c70:	00009d8c 	andeq	r9, r0, ip, lsl #27
    9c74:	00009d8c 	andeq	r9, r0, ip, lsl #27
    9c78:	00009d8c 	andeq	r9, r0, ip, lsl #27
    9c7c:	00009d8c 	andeq	r9, r0, ip, lsl #27
    9c80:	00009d8c 	andeq	r9, r0, ip, lsl #27
    9c84:	00009d8c 	andeq	r9, r0, ip, lsl #27
    9c88:	00009d8c 	andeq	r9, r0, ip, lsl #27
    9c8c:	00009d8c 	andeq	r9, r0, ip, lsl #27
    9c90:	00009d8c 	andeq	r9, r0, ip, lsl #27
    9c94:	00009cfc 	strdeq	r9, [r0], -ip
    9c98:	00009d8c 	andeq	r9, r0, ip, lsl #27
    9c9c:	00009d8c 	andeq	r9, r0, ip, lsl #27
    9ca0:	00009d8c 	andeq	r9, r0, ip, lsl #27
    9ca4:	00009d8c 	andeq	r9, r0, ip, lsl #27
    9ca8:	00009d8c 	andeq	r9, r0, ip, lsl #27
    9cac:	00009d8c 	andeq	r9, r0, ip, lsl #27
    9cb0:	00009d8c 	andeq	r9, r0, ip, lsl #27
    9cb4:	00009d8c 	andeq	r9, r0, ip, lsl #27
    9cb8:	00009d8c 	andeq	r9, r0, ip, lsl #27
    9cbc:	00009d8c 	andeq	r9, r0, ip, lsl #27
    9cc0:	00009d8c 	andeq	r9, r0, ip, lsl #27
    9cc4:	00009d8c 	andeq	r9, r0, ip, lsl #27
    9cc8:	00009d8c 	andeq	r9, r0, ip, lsl #27
    9ccc:	00009d8c 	andeq	r9, r0, ip, lsl #27
    9cd0:	00009ce8 	andeq	r9, r0, r8, ror #25
    9cd4:	00009d8c 	andeq	r9, r0, ip, lsl #27
    9cd8:	00009d8c 	andeq	r9, r0, ip, lsl #27
    9cdc:	00009d8c 	andeq	r9, r0, ip, lsl #27
    9ce0:	00009d8c 	andeq	r9, r0, ip, lsl #27
    9ce4:	00009d94 	muleq	r0, r4, sp
    9ce8:	e59a0004 	ldr	r0, [sl, #4]
    9cec:	e1a01005 	mov	r1, r5
    9cf0:	e1a0a007 	mov	sl, r7
    9cf4:	ebffffa1 	bl	9b80 <fputs>
    9cf8:	eaffffca 	b	9c28 <fprintf+0x4c>
    9cfc:	e59aa004 	ldr	sl, [sl, #4]
    9d00:	e35a0000 	cmp	sl, #0
    9d04:	ba000049 	blt	9e30 <fprintf+0x254>
    9d08:	0a000041 	beq	9e14 <fprintf+0x238>
    9d0c:	e28dc01b 	add	ip, sp, #27
    9d10:	e3a01000 	mov	r1, #0
    9d14:	ea000000 	b	9d1c <fprintf+0x140>
    9d18:	e1a01000 	mov	r1, r0
    9d1c:	e0c23a96 	smull	r3, r2, r6, sl
    9d20:	e2810001 	add	r0, r1, #1
    9d24:	e1a03fca 	asr	r3, sl, #31
    9d28:	e0632142 	rsb	r2, r3, r2, asr #2
    9d2c:	e3500009 	cmp	r0, #9
    9d30:	d3a0e001 	movle	lr, #1
    9d34:	c3a0e000 	movgt	lr, #0
    9d38:	e3520000 	cmp	r2, #0
    9d3c:	d3a0e000 	movle	lr, #0
    9d40:	e0823102 	add	r3, r2, r2, lsl #2
    9d44:	e04a3083 	sub	r3, sl, r3, lsl #1
    9d48:	e2833030 	add	r3, r3, #48	; 0x30
    9d4c:	e20330ff 	and	r3, r3, #255	; 0xff
    9d50:	e35e0000 	cmp	lr, #0
    9d54:	e5ec3001 	strb	r3, [ip, #1]!
    9d58:	e1a0a002 	mov	sl, r2
    9d5c:	1affffed 	bne	9d18 <fprintf+0x13c>
    9d60:	e28da01c 	add	sl, sp, #28
    9d64:	e08ab001 	add	fp, sl, r1
    9d68:	ea000000 	b	9d70 <fprintf+0x194>
    9d6c:	e57b3001 	ldrb	r3, [fp, #-1]!
    9d70:	e5950000 	ldr	r0, [r5]
    9d74:	e28d100c 	add	r1, sp, #12
    9d78:	e3a02001 	mov	r2, #1
    9d7c:	e58d300c 	str	r3, [sp, #12]
    9d80:	ebfff8dc 	bl	80f8 <write>
    9d84:	e15b000a 	cmp	fp, sl
    9d88:	1afffff7 	bne	9d6c <fprintf+0x190>
    9d8c:	e1a0a007 	mov	sl, r7
    9d90:	eaffffa4 	b	9c28 <fprintf+0x4c>
    9d94:	e28d1010 	add	r1, sp, #16
    9d98:	e3a02001 	mov	r2, #1
    9d9c:	e5950000 	ldr	r0, [r5]
    9da0:	e59aa004 	ldr	sl, [sl, #4]
    9da4:	e58d8010 	str	r8, [sp, #16]
    9da8:	ebfff8d2 	bl	80f8 <write>
    9dac:	e5950000 	ldr	r0, [r5]
    9db0:	e28d1014 	add	r1, sp, #20
    9db4:	e3a02001 	mov	r2, #1
    9db8:	e58d9014 	str	r9, [sp, #20]
    9dbc:	e3a0b020 	mov	fp, #32
    9dc0:	ebfff8cc 	bl	80f8 <write>
    9dc4:	e1a03b5a 	asr	r3, sl, fp
    9dc8:	e203300f 	and	r3, r3, #15
    9dcc:	e3530009 	cmp	r3, #9
    9dd0:	82833037 	addhi	r3, r3, #55	; 0x37
    9dd4:	92833030 	addls	r3, r3, #48	; 0x30
    9dd8:	e3a02001 	mov	r2, #1
    9ddc:	e24bb004 	sub	fp, fp, #4
    9de0:	e5950000 	ldr	r0, [r5]
    9de4:	e28d1018 	add	r1, sp, #24
    9de8:	e58d3018 	str	r3, [sp, #24]
    9dec:	ebfff8c1 	bl	80f8 <write>
    9df0:	e37b0004 	cmn	fp, #4
    9df4:	1afffff2 	bne	9dc4 <fprintf+0x1e8>
    9df8:	e1a0a007 	mov	sl, r7
    9dfc:	eaffff89 	b	9c28 <fprintf+0x4c>
    9e00:	e3a00000 	mov	r0, #0
    9e04:	e28dd028 	add	sp, sp, #40	; 0x28
    9e08:	e8bd4ff0 	pop	{r4, r5, r6, r7, r8, r9, sl, fp, lr}
    9e0c:	e28dd00c 	add	sp, sp, #12
    9e10:	e12fff1e 	bx	lr
    9e14:	e28d1028 	add	r1, sp, #40	; 0x28
    9e18:	e5218020 	str	r8, [r1, #-32]!
    9e1c:	e5950000 	ldr	r0, [r5]
    9e20:	e3a02001 	mov	r2, #1
    9e24:	ebfff8b3 	bl	80f8 <write>
    9e28:	e1a0a007 	mov	sl, r7
    9e2c:	eaffff7d 	b	9c28 <fprintf+0x4c>
    9e30:	e3a0302d 	mov	r3, #45	; 0x2d
    9e34:	e28d1028 	add	r1, sp, #40	; 0x28
    9e38:	e5213024 	str	r3, [r1, #-36]!	; 0x24
    9e3c:	e5950000 	ldr	r0, [r5]
    9e40:	e3a02001 	mov	r2, #1
    9e44:	e26aa000 	rsb	sl, sl, #0
    9e48:	ebfff8aa 	bl	80f8 <write>
    9e4c:	eaffffae 	b	9d0c <fprintf+0x130>
    9e50:	66666667 	strbtvs	r6, [r6], -r7, ror #12

00009e54 <memcpy>:
    9e54:	e3520000 	cmp	r2, #0
    9e58:	012fff1e 	bxeq	lr
    9e5c:	e2403001 	sub	r3, r0, #1
    9e60:	e0812002 	add	r2, r1, r2
    9e64:	e4d1c001 	ldrb	ip, [r1], #1
    9e68:	e1510002 	cmp	r1, r2
    9e6c:	e5e3c001 	strb	ip, [r3, #1]!
    9e70:	1afffffb 	bne	9e64 <memcpy+0x10>
    9e74:	e12fff1e 	bx	lr

00009e78 <memset>:
    9e78:	e3520000 	cmp	r2, #0
    9e7c:	012fff1e 	bxeq	lr
    9e80:	e0802002 	add	r2, r0, r2
    9e84:	e4c01001 	strb	r1, [r0], #1
    9e88:	e1500002 	cmp	r0, r2
    9e8c:	1afffffc 	bne	9e84 <memset+0xc>
    9e90:	e12fff1e 	bx	lr

00009e94 <strcmp>:
    9e94:	e5d0c000 	ldrb	ip, [r0]
    9e98:	e5d12000 	ldrb	r2, [r1]
    9e9c:	e152000c 	cmp	r2, ip
    9ea0:	1a000008 	bne	9ec8 <strcmp+0x34>
    9ea4:	e3520000 	cmp	r2, #0
    9ea8:	1a000002 	bne	9eb8 <strcmp+0x24>
    9eac:	ea00000a 	b	9edc <strcmp+0x48>
    9eb0:	e3530000 	cmp	r3, #0
    9eb4:	0a000006 	beq	9ed4 <strcmp+0x40>
    9eb8:	e5f0c001 	ldrb	ip, [r0, #1]!
    9ebc:	e5f13001 	ldrb	r3, [r1, #1]!
    9ec0:	e153000c 	cmp	r3, ip
    9ec4:	0afffff9 	beq	9eb0 <strcmp+0x1c>
    9ec8:	e29c0000 	adds	r0, ip, #0
    9ecc:	13e00000 	mvnne	r0, #0
    9ed0:	e12fff1e 	bx	lr
    9ed4:	e1a00003 	mov	r0, r3
    9ed8:	e12fff1e 	bx	lr
    9edc:	e1a00002 	mov	r0, r2
    9ee0:	e12fff1e 	bx	lr

00009ee4 <strlen>:
    9ee4:	e5d01000 	ldrb	r1, [r0]
    9ee8:	e3510000 	cmp	r1, #0
    9eec:	e2803001 	add	r3, r0, #1
    9ef0:	0a000003 	beq	9f04 <strlen+0x20>
    9ef4:	e0601003 	rsb	r1, r0, r3
    9ef8:	e4d32001 	ldrb	r2, [r3], #1
    9efc:	e3520000 	cmp	r2, #0
    9f00:	1afffffb 	bne	9ef4 <strlen+0x10>
    9f04:	e1a00001 	mov	r0, r1
    9f08:	e12fff1e 	bx	lr

00009f0c <strcpy>:
    9f0c:	e5d13000 	ldrb	r3, [r1]
    9f10:	e3530000 	cmp	r3, #0
    9f14:	e1a0c000 	mov	ip, r0
    9f18:	0a00000a 	beq	9f48 <strcpy+0x3c>
    9f1c:	e3a02000 	mov	r2, #0
    9f20:	e2400001 	sub	r0, r0, #1
    9f24:	e5e03001 	strb	r3, [r0, #1]!
    9f28:	e5f13001 	ldrb	r3, [r1, #1]!
    9f2c:	e3530000 	cmp	r3, #0
    9f30:	e2822001 	add	r2, r2, #1
    9f34:	1afffffa 	bne	9f24 <strcpy+0x18>
    9f38:	e3a03000 	mov	r3, #0
    9f3c:	e1a0000c 	mov	r0, ip
    9f40:	e7cc3002 	strb	r3, [ip, r2]
    9f44:	e12fff1e 	bx	lr
    9f48:	e1a02003 	mov	r2, r3
    9f4c:	eafffff9 	b	9f38 <strcpy+0x2c>

Disassembly of section .rodata.str1.4:

00009f50 <.rodata.str1.4>:
    9f50:	5d4b4f5b 	stclpl	15, cr4, [fp, #-364]	; 0xfffffe94
    9f54:	6d695420 	cfstrdvs	mvd5, [r9, #-128]!	; 0xffffff80
    9f58:	69207265 	stmdbvs	r0!, {r0, r2, r5, r6, r9, ip, sp, lr}
    9f5c:	6974696e 	ldmdbvs	r4!, {r1, r2, r3, r5, r6, r8, fp, sp, lr}^
    9f60:	7a696c61 	bvc	1a650ec <_uart_data+0x1a5a978>
    9f64:	000a6465 	andeq	r6, sl, r5, ror #8
    9f68:	5d4b4f5b 	stclpl	15, cr4, [fp, #-364]	; 0xfffffe94
    9f6c:	51524920 	cmppl	r2, r0, lsr #18
    9f70:	6f6c6720 	svcvs	0x006c6720
    9f74:	796c6162 	stmdbvc	ip!, {r1, r5, r6, r8, sp, lr}^
    9f78:	616e6520 	cmnvs	lr, r0, lsr #10
    9f7c:	64656c62 	strbtvs	r6, [r5], #-3170	; 0xc62
    9f80:	0000000a 	andeq	r0, r0, sl
    9f84:	5d4b4f5b 	stclpl	15, cr4, [fp, #-364]	; 0xfffffe94
    9f88:	68635320 	stmdavs	r3!, {r5, r8, r9, ip, lr}^
    9f8c:	6c756465 	cfldrdvs	mvd6, [r5], #-404	; 0xfffffe6c
    9f90:	69207265 	stmdbvs	r0!, {r0, r2, r5, r6, r9, ip, sp, lr}
    9f94:	6974696e 	ldmdbvs	r4!, {r1, r2, r3, r5, r6, r8, fp, sp, lr}^
    9f98:	7a696c61 	bvc	1a65124 <_uart_data+0x1a5a9b0>
    9f9c:	000a6465 	andeq	r6, sl, r5, ror #8
    9fa0:	23232323 	teqcs	r3, #-1946157056	; 0x8c000000
    9fa4:	52524520 	subspl	r4, r2, #32, 10	; 0x8000000
    9fa8:	2052524f 	subscs	r5, r2, pc, asr #4
    9fac:	23232323 	teqcs	r3, #-1946157056	; 0x8c000000
    9fb0:	204f4e20 	subcs	r4, pc, r0, lsr #28
    9fb4:	45524f4d 	ldrbmi	r4, [r2, #-3917]	; 0xf4d
    9fb8:	45524620 	ldrbmi	r4, [r2, #-1568]	; 0x620
    9fbc:	41542045 	cmpmi	r4, r5, asr #32
    9fc0:	49204b53 	stmdbmi	r0!, {r0, r1, r4, r6, r8, r9, fp, lr}
    9fc4:	000a7344 	andeq	r7, sl, r4, asr #6
    9fc8:	20444950 	subcs	r4, r4, r0, asr r9
    9fcc:	77206425 	strvc	r6, [r0, -r5, lsr #8]!
    9fd0:	73746e61 	cmnvc	r4, #1552	; 0x610
    9fd4:	206f7420 	rsbcs	r7, pc, r0, lsr #8
    9fd8:	74697865 	strbtvc	r7, [r9], #-2149	; 0x865
    9fdc:	74697720 	strbtvc	r7, [r9], #-1824	; 0x720
    9fe0:	6f632068 	svcvs	0x00632068
    9fe4:	203a6564 	eorscs	r6, sl, r4, ror #10
    9fe8:	000a6425 	andeq	r6, sl, r5, lsr #8
    9fec:	47206b25 	strmi	r6, [r0, -r5, lsr #22]!
    9ff0:	49505445 	ldmdbmi	r0, {r0, r2, r6, sl, ip, lr}^
    9ff4:	000a2144 	andeq	r2, sl, r4, asr #2
    9ff8:	20717249 	rsbscs	r7, r1, r9, asr #4
    9ffc:	20746f6e 	rsbscs	r6, r4, lr, ror #30
    a000:	6e756f66 	cdpvs	15, 7, cr6, cr5, cr6, {3}
    a004:	00000a64 	andeq	r0, r0, r4, ror #20
    a008:	6e6b6e55 	mcrvs	14, 3, r6, cr11, cr5, {2}
    a00c:	206e776f 	rsbcs	r7, lr, pc, ror #14
    a010:	63737973 	cmnvs	r3, #1884160	; 0x1cc000
    a014:	0a6c6c61 	beq	1b251a0 <_uart_data+0x1b1aa2c>
    a018:	00000000 	andeq	r0, r0, r0
    a01c:	3a786548 	bcc	1e23544 <_uart_data+0x1e18dd0>
    a020:	0d782520 	cfldr64eq	mvdx2, [r8, #-128]!	; 0xffffff80
    a024:	6365440a 	cmnvs	r5, #167772160	; 0xa000000
    a028:	6425203a 	strtvs	r2, [r5], #-58	; 0x3a
    a02c:	0000000a 	andeq	r0, r0, sl
    a030:	73617243 	cmnvc	r1, #805306372	; 0x30000004
    a034:	00002168 	andeq	r2, r0, r8, ror #2
    a038:	74726175 	ldrbtvc	r6, [r2], #-373	; 0x175
    a03c:	00000030 	andeq	r0, r0, r0, lsr r0
    a040:	6e72654b 	cdpvs	5, 7, cr6, cr2, cr11, {2}
    a044:	203a6c65 	eorscs	r6, sl, r5, ror #24
    a048:	00000000 	andeq	r0, r0, r0
    a04c:	00544241 	subseq	r4, r4, r1, asr #4
    a050:	00525653 	subseq	r5, r2, r3, asr r6
    a054:	00525355 	subseq	r5, r2, r5, asr r3
    a058:	00515249 	subseq	r5, r1, r9, asr #4
    a05c:	00514946 	subseq	r4, r1, r6, asr #18
    a060:	00535953 	subseq	r5, r3, r3, asr r9
    a064:	00444e55 	subeq	r4, r4, r5, asr lr
    a068:	63656843 	cmnvs	r5, #4390912	; 0x430000
    a06c:	676e696b 	strbvs	r6, [lr, -fp, ror #18]!
    a070:	20782520 	rsbscs	r2, r8, r0, lsr #10
    a074:	69616761 	stmdbvs	r1!, {r0, r5, r6, r8, r9, sl, sp, lr}^
    a078:	2074736e 	rsbscs	r7, r4, lr, ror #6
    a07c:	46207825 	strtmi	r7, [r0], -r5, lsr #16
    a080:	646e756f 	strbtvs	r7, [lr], #-1391	; 0x56f
    a084:	25282021 	strcs	r2, [r8, #-33]!	; 0x21
    a088:	000a2964 	andeq	r2, sl, r4, ror #18
    a08c:	2d2d0a0a 	vpushcs	{s0-s9}
    a090:	55202d2d 	strpl	r2, [r0, #-3373]!	; 0xd2d
    a094:	20545241 	subscs	r5, r4, r1, asr #4
    a098:	55424544 	strbpl	r4, [r2, #-1348]	; 0x544
    a09c:	2d203a47 	vstmdbcs	r0!, {s6-s76}
    a0a0:	0a2d2d2d 	beq	b5555c <_uart_data+0xb4ade8>
    a0a4:	00000000 	andeq	r0, r0, r0
    a0a8:	5f515249 	svcpl	0x00515249
    a0ac:	49534142 	ldmdbmi	r3, {r1, r6, r8, lr}^
    a0b0:	45505f43 	ldrbmi	r5, [r0, #-3907]	; 0xf43
    a0b4:	203a444e 	eorscs	r4, sl, lr, asr #8
    a0b8:	000a7825 	andeq	r7, sl, r5, lsr #16
    a0bc:	5f515249 	svcpl	0x00515249
    a0c0:	5f555047 	svcpl	0x00555047
    a0c4:	444e4550 	strbmi	r4, [lr], #-1360	; 0x550
    a0c8:	25203a31 	strcs	r3, [r0, #-2609]!	; 0xa31
    a0cc:	00000a78 	andeq	r0, r0, r8, ror sl
    a0d0:	5f515249 	svcpl	0x00515249
    a0d4:	5f555047 	svcpl	0x00555047
    a0d8:	444e4550 	strbmi	r4, [lr], #-1360	; 0x550
    a0dc:	25203a32 	strcs	r3, [r0, #-2610]!	; 0xa32
    a0e0:	00000a78 	andeq	r0, r0, r8, ror sl
    a0e4:	2d2d2d2d 	stccs	13, cr2, [sp, #-180]!	; 0xffffff4c
    a0e8:	0000000a 	andeq	r0, r0, sl
    a0ec:	5f515249 	svcpl	0x00515249
    a0f0:	49534142 	ldmdbmi	r3, {r1, r6, r8, lr}^
    a0f4:	4e455f43 	cdpmi	15, 4, cr5, cr5, cr3, {2}
    a0f8:	454c4241 	strbmi	r4, [ip, #-577]	; 0x241
    a0fc:	7825203a 	stmdavc	r5!, {r1, r3, r4, r5, sp}
    a100:	0000000a 	andeq	r0, r0, sl
    a104:	5f515249 	svcpl	0x00515249
    a108:	5f555047 	svcpl	0x00555047
    a10c:	42414e45 	submi	r4, r1, #1104	; 0x450
    a110:	203a454c 	eorscs	r4, sl, ip, asr #10
    a114:	000a7825 	andeq	r7, sl, r5, lsr #16
    a118:	5f515249 	svcpl	0x00515249
    a11c:	5f555047 	svcpl	0x00555047
    a120:	42414e45 	submi	r4, r1, #1104	; 0x450
    a124:	3a32454c 	bcc	c9b65c <_uart_data+0xc90ee8>
    a128:	0a782520 	beq	1e135b0 <_uart_data+0x1e08e3c>
    a12c:	00000000 	andeq	r0, r0, r0
    a130:	5f515249 	svcpl	0x00515249
    a134:	49534142 	ldmdbmi	r3, {r1, r6, r8, lr}^
    a138:	49445f43 	stmdbmi	r4, {r0, r1, r6, r8, r9, sl, fp, ip, lr}^
    a13c:	4c424153 	stfmie	f4, [r2], {83}	; 0x53
    a140:	25203a45 	strcs	r3, [r0, #-2629]!	; 0xa45
    a144:	00000a78 	andeq	r0, r0, r8, ror sl
    a148:	5f515249 	svcpl	0x00515249
    a14c:	5f555047 	svcpl	0x00555047
    a150:	41534944 	cmpmi	r3, r4, asr #18
    a154:	31454c42 	cmpcc	r5, r2, asr #24
    a158:	7825203a 	stmdavc	r5!, {r1, r3, r4, r5, sp}
    a15c:	0000000a 	andeq	r0, r0, sl
    a160:	5f515249 	svcpl	0x00515249
    a164:	5f555047 	svcpl	0x00555047
    a168:	41534944 	cmpmi	r3, r4, asr #18
    a16c:	32454c42 	subcc	r4, r5, #16896	; 0x4200
    a170:	7825203a 	stmdavc	r5!, {r1, r3, r4, r5, sp}
    a174:	0000000a 	andeq	r0, r0, sl
    a178:	30697073 	rsbcc	r7, r9, r3, ror r0
    a17c:	00000000 	andeq	r0, r0, r0
    a180:	3064636c 	rsbcc	r6, r4, ip, ror #6
    a184:	00000000 	andeq	r0, r0, r0
    a188:	6e65704f 	cdpvs	0, 6, cr7, cr5, cr15, {2}
    a18c:	64206465 	strtvs	r6, [r0], #-1125	; 0x465
    a190:	63697665 	cmnvs	r9, #105906176	; 0x6500000
    a194:	64252065 	strtvs	r2, [r5], #-101	; 0x65
    a198:	0000000a 	andeq	r0, r0, sl
    a19c:	6f727245 	svcvs	0x00727245
    a1a0:	706f2072 	rsbvc	r2, pc, r2, ror r0	; <UNPREDICTABLE>
    a1a4:	6e696e65 	cdpvs	14, 6, cr6, cr9, cr5, {3}
    a1a8:	65642067 	strbvs	r2, [r4, #-103]!	; 0x67
    a1ac:	65636976 	strbvs	r6, [r3, #-2422]!	; 0x976
    a1b0:	0000000a 	andeq	r0, r0, sl
    a1b4:	746d656d 	strbtvc	r6, [sp], #-1389	; 0x56d
    a1b8:	00747365 	rsbseq	r7, r4, r5, ror #6
    a1bc:	70746567 	rsbsvc	r6, r4, r7, ror #10
    a1c0:	00006469 	andeq	r6, r0, r9, ror #8
    a1c4:	72727543 	rsbsvc	r7, r2, #281018368	; 0x10c00000
    a1c8:	20746e65 	rsbscs	r6, r4, r5, ror #28
    a1cc:	3a444950 	bcc	111c714 <_uart_data+0x1111fa0>
    a1d0:	0a642520 	beq	1913658 <_uart_data+0x1908ee4>
    a1d4:	00000000 	andeq	r0, r0, r0
    a1d8:	6b736174 	blvs	1ce27b0 <_uart_data+0x1cd803c>
    a1dc:	00000073 	andeq	r0, r0, r3, ror r0
    a1e0:	6e6e7552 	mcrvs	5, 3, r7, cr14, cr2, {2}
    a1e4:	20676e69 	rsbcs	r6, r7, r9, ror #28
    a1e8:	636f7270 	cmnvs	pc, #112, 4
    a1ec:	65737365 	ldrbvs	r7, [r3, #-869]!	; 0x365
    a1f0:	202e2e73 	eorcs	r2, lr, r3, ror lr
    a1f4:	4f444f54 	svcmi	0x00444f54
    a1f8:	00000a21 	andeq	r0, r0, r1, lsr #20
    a1fc:	6b6e550a 	blvs	1b9f62c <_uart_data+0x1b94eb8>
    a200:	6e776f6e 	cdpvs	15, 7, cr6, cr7, cr14, {3}
    a204:	6d6f6320 	stclvs	3, cr6, [pc, #-128]!	; a18c <strcpy+0x280>
    a208:	646e616d 	strbtvs	r6, [lr], #-365	; 0x16d
    a20c:	0000000a 	andeq	r0, r0, sl
    a210:	2d2d2d2d 	stccs	13, cr2, [sp, #-180]!	; 0xffffff4c
    a214:	2d2d2d2d 	stccs	13, cr2, [sp, #-180]!	; 0xffffff4c
    a218:	2d2d2d2d 	stccs	13, cr2, [sp, #-180]!	; 0xffffff4c
    a21c:	2d2d2d2d 	stccs	13, cr2, [sp, #-180]!	; 0xffffff4c
    a220:	2d2d2d2d 	stccs	13, cr2, [sp, #-180]!	; 0xffffff4c
    a224:	2d2d2d2d 	stccs	13, cr2, [sp, #-180]!	; 0xffffff4c
    a228:	00000a2d 	andeq	r0, r0, sp, lsr #20
    a22c:	534f7254 	movtpl	r7, #62036	; 0xf254
    a230:	2e307620 	cfmsuba32cs	mvax1, mvax7, mvfx0, mvfx0
    a234:	3a312e30 	bcc	c55afc <_uart_data+0xc4b388>
    a238:	0000000a 	andeq	r0, r0, sl
    a23c:	0000203e 	andeq	r2, r0, lr, lsr r0
    a240:	00203e0a 	eoreq	r3, r0, sl, lsl #28

Disassembly of section .rodata:

0000a244 <.rodata>:
    a244:	7464636c 	strbtvc	r6, [r4], #-876	; 0x36c
    a248:	00747365 	rsbseq	r7, r4, r5, ror #6
    a24c:	00000000 	andeq	r0, r0, r0

Disassembly of section .data:

0000a250 <__spidriver>:
    a250:	00000000 	andeq	r0, r0, r0
    a254:	000094a0 	andeq	r9, r0, r0, lsr #9
    a258:	00009440 	andeq	r9, r0, r0, asr #8
    a25c:	00000000 	andeq	r0, r0, r0
    a260:	000094e0 	andeq	r9, r0, r0, ror #9
    a264:	00009428 	andeq	r9, r0, r8, lsr #8

0000a268 <__uartdriver>:
    a268:	000095d4 	ldrdeq	r9, [r0], -r4
    a26c:	00009668 	andeq	r9, r0, r8, ror #12
    a270:	00009630 	andeq	r9, r0, r0, lsr r6
    a274:	000095bc 			; <UNDEFINED> instruction: 0x000095bc
    a278:	000096d0 	ldrdeq	r9, [r0], -r0
    a27c:	000096a8 	andeq	r9, r0, r8, lsr #13

Disassembly of section .bss:

0000a280 <__pk_serial>:
    a280:	00000000 	andeq	r0, r0, r0

0000a284 <next_driver_id>:
    a284:	00000000 	andeq	r0, r0, r0

0000a288 <__irq_handlers>:
	...

0000a300 <__irq_counter>:
    a300:	00000000 	andeq	r0, r0, r0

0000a304 <stdout>:
    a304:	00000000 	andeq	r0, r0, r0

0000a308 <stdin>:
    a308:	00000000 	andeq	r0, r0, r0

0000a30c <drivers>:
	...

0000a76c <spi_is_open>:
    a76c:	00000000 	andeq	r0, r0, r0

0000a770 <uart_is_opened>:
    a770:	00000000 	andeq	r0, r0, r0

0000a774 <_uart_data>:
	...

Disassembly of section .ARM.attributes:

00000000 <.ARM.attributes>:
   0:	00002a41 	andeq	r2, r0, r1, asr #20
   4:	61656100 	cmnvs	r5, r0, lsl #2
   8:	01006962 	tsteq	r0, r2, ror #18
   c:	00000020 	andeq	r0, r0, r0, lsr #32
  10:	4d524105 	ldfmie	f4, [r2, #-20]	; 0xffffffec
  14:	54347620 	ldrtpl	r7, [r4], #-1568	; 0x620
  18:	08020600 	stmdaeq	r2, {r9, sl}
  1c:	12010901 	andne	r0, r1, #16384	; 0x4000
  20:	15011404 	strne	r1, [r1, #-1028]	; 0x404
  24:	18031701 	stmdane	r3, {r0, r8, r9, sl, ip}
  28:	Address 0x0000000000000028 is out of bounds.


Disassembly of section .comment:

00000000 <.comment>:
   0:	3a434347 	bcc	10d0d24 <_uart_data+0x10c65b0>
   4:	4e472820 	cdpmi	8, 4, cr2, cr7, cr0, {1}
   8:	6f542055 	svcvs	0x00542055
   c:	20736c6f 	rsbscs	r6, r3, pc, ror #24
  10:	20726f66 	rsbscs	r6, r2, r6, ror #30
  14:	204d5241 	subcs	r5, sp, r1, asr #4
  18:	65626d45 	strbvs	r6, [r2, #-3397]!	; 0xd45
  1c:	64656464 	strbtvs	r6, [r5], #-1124	; 0x464
  20:	6f725020 	svcvs	0x00725020
  24:	73736563 	cmnvc	r3, #415236096	; 0x18c00000
  28:	2973726f 	ldmdbcs	r3!, {r0, r1, r2, r3, r5, r6, r9, ip, sp, lr}^
  2c:	392e3420 	stmdbcc	lr!, {r5, sl, ip, sp}
  30:	3220332e 	eorcc	r3, r0, #-1207959552	; 0xb8000000
  34:	31343130 	teqcc	r4, r0, lsr r1
  38:	20393131 	eorscs	r3, r9, r1, lsr r1
  3c:	6c657228 	sfmvs	f7, 2, [r5], #-160	; 0xffffff60
  40:	65736165 	ldrbvs	r6, [r3, #-357]!	; 0x165
  44:	415b2029 	cmpmi	fp, r9, lsr #32
  48:	652f4d52 	strvs	r4, [pc, #-3410]!	; fffff2fe <_uart_data+0xffff4b8a>
  4c:	6465626d 	strbtvs	r6, [r5], #-621	; 0x26d
  50:	2d646564 	cfstr64cs	mvdx6, [r4, #-400]!	; 0xfffffe70
  54:	2d395f34 	ldccs	15, cr5, [r9, #-208]!	; 0xffffff30
  58:	6e617262 	cdpvs	2, 6, cr7, cr1, cr2, {3}
  5c:	72206863 	eorvc	r6, r0, #6488064	; 0x630000
  60:	73697665 	cmnvc	r9, #105906176	; 0x6500000
  64:	206e6f69 	rsbcs	r6, lr, r9, ror #30
  68:	32383132 	eorscc	r3, r8, #-2147483636	; 0x8000000c
  6c:	005d3837 	subseq	r3, sp, r7, lsr r8
